
Alchemy_Nano-FOC.elf:     file format elf32-littleriscv
Alchemy_Nano-FOC.elf
architecture: riscv:rv32, flags 0x00000112:
EXEC_P, HAS_SYMS, D_PAGED
start address 0x00000000

Program Header:
    LOAD off    0x00001000 vaddr 0x00000000 paddr 0x00000000 align 2**12
         filesz 0x00003658 memsz 0x00003658 flags r-x
    LOAD off    0x00005000 vaddr 0x20000000 paddr 0x00003658 align 2**12
         filesz 0x00000078 memsz 0x00000950 flags rw-
    LOAD off    0x00005800 vaddr 0x20004800 paddr 0x20004800 align 2**12
         filesz 0x00000000 memsz 0x00000800 flags rw-

Sections:
Idx Name          Size      VMA       LMA       File off  Algn
  0 .init         00000004  00000000  00000000  00001000  2**1
                  CONTENTS, ALLOC, LOAD, READONLY, CODE
  1 .vector       000000fc  00000004  00000004  00001004  2**1
                  CONTENTS, ALLOC, LOAD, READONLY, CODE
  2 .text         00003558  00000100  00000100  00001100  2**2
                  CONTENTS, ALLOC, LOAD, READONLY, CODE
  3 .fini         00000000  00003658  00003658  00005078  2**0
                  CONTENTS, ALLOC, LOAD, CODE
  4 .dalign       00000000  20000000  20000000  00005078  2**0
                  CONTENTS
  5 .dlalign      00000000  00003658  00003658  00005078  2**0
                  CONTENTS
  6 .data         00000078  20000000  00003658  00005000  2**2
                  CONTENTS, ALLOC, LOAD, DATA
  7 .bss          000008d8  20000078  000036d0  00005078  2**2
                  ALLOC
  8 .stack        00000800  20004800  20004800  00005800  2**0
                  ALLOC
  9 .debug_info   00005575  00000000  00000000  00005078  2**0
                  CONTENTS, READONLY, DEBUGGING
 10 .debug_abbrev 0000130e  00000000  00000000  0000a5ed  2**0
                  CONTENTS, READONLY, DEBUGGING
 11 .debug_aranges 00000428  00000000  00000000  0000b900  2**3
                  CONTENTS, READONLY, DEBUGGING
 12 .debug_ranges 00000410  00000000  00000000  0000bd28  2**3
                  CONTENTS, READONLY, DEBUGGING
 13 .debug_line   0000676a  00000000  00000000  0000c138  2**0
                  CONTENTS, READONLY, DEBUGGING
 14 .debug_str    0000192b  00000000  00000000  000128a2  2**0
                  CONTENTS, READONLY, DEBUGGING
 15 .comment      00000033  00000000  00000000  000141cd  2**0
                  CONTENTS, READONLY
 16 .debug_frame  000012c0  00000000  00000000  00014200  2**2
                  CONTENTS, READONLY, DEBUGGING
 17 .debug_loc    00001911  00000000  00000000  000154c0  2**0
                  CONTENTS, READONLY, DEBUGGING
 18 .stab         00000084  00000000  00000000  00016dd4  2**2
                  CONTENTS, READONLY, DEBUGGING
 19 .stabstr      00000117  00000000  00000000  00016e58  2**0
                  CONTENTS, READONLY, DEBUGGING
SYMBOL TABLE:
00000000 l    d  .init	00000000 .init
00000004 l    d  .vector	00000000 .vector
00000100 l    d  .text	00000000 .text
00003658 l    d  .fini	00000000 .fini
20000000 l    d  .dalign	00000000 .dalign
00003658 l    d  .dlalign	00000000 .dlalign
20000000 l    d  .data	00000000 .data
20000078 l    d  .bss	00000000 .bss
20004800 l    d  .stack	00000000 .stack
00000000 l    d  .debug_info	00000000 .debug_info
00000000 l    d  .debug_abbrev	00000000 .debug_abbrev
00000000 l    d  .debug_aranges	00000000 .debug_aranges
00000000 l    d  .debug_ranges	00000000 .debug_ranges
00000000 l    d  .debug_line	00000000 .debug_line
00000000 l    d  .debug_str	00000000 .debug_str
00000000 l    d  .comment	00000000 .comment
00000000 l    d  .debug_frame	00000000 .debug_frame
00000000 l    d  .debug_loc	00000000 .debug_loc
00000000 l    d  .stab	00000000 .stab
00000000 l    d  .stabstr	00000000 .stabstr
00000000 l    df *ABS*	00000000 ./Startup/startup_ch32v20x_D6.o
00000004 l       .vector	00000000 _vector_base
00000000 l    df *ABS*	00000000 ch32v203_core.c
00000000 l    df *ABS*	00000000 ch32v203_exti.c
00000000 l    df *ABS*	00000000 ch32v203_gpio.c
00000000 l    df *ABS*	00000000 ch32v203_rcc.c
00000000 l    df *ABS*	00000000 ch32v203_spi.c
00000000 l    df *ABS*	00000000 ch32v203_uart.c
00000000 l    df *ABS*	00000000 ch32v203_usbd.c
00000000 l    df *ABS*	00000000 ch32v203_usbd_cdc.c
000033c0 l     O .text	00000043 cdc_config_descriptor
00003404 l     O .text	00000012 cdc_device_descriptor
00003416 l     O .text	0000000a cdc_serial_state
00003420 l     O .text	00000016 cdc_string_product
00003436 l     O .text	00000016 cdc_string_serial
0000344c l     O .text	0000000e cdc_string_vendor
0000345c l     O .text	00000032 usbd_config
20000070 l     O .data	00000004 cdc_string_lang_id
00000000 l    df *ABS*	00000000 fifo.c
00000000 l    df *ABS*	00000000 main.c
00000000 l    df *ABS*	00000000 debug.c
200000e4 l     O .bss	00000002 p_ms
200000e6 l     O .bss	00000001 p_us
20000068 l     O .data	00000004 curbrk.3349
00000000 l    df *ABS*	00000000 printf.c
00000000 l    df *ABS*	00000000 puts.c
00000000 l    df *ABS*	00000000 wbuf.c
00000000 l    df *ABS*	00000000 wsetup.c
00000000 l    df *ABS*	00000000 fflush.c
00000000 l    df *ABS*	00000000 findfp.c
000025e8 l     F .text	0000006a std
00000000 l    df *ABS*	00000000 fwalk.c
00000000 l    df *ABS*	00000000 makebuf.c
00000000 l    df *ABS*	00000000 nano-mallocr.c
00000000 l    df *ABS*	00000000 nano-mallocr.c
00000000 l    df *ABS*	00000000 nano-vfprintf.c
00002a84 l     F .text	0000002a __sfputc_r
00000000 l    df *ABS*	00000000 nano-vfprintf_i.c
00000000 l    df *ABS*	00000000 sbrkr.c
00000000 l    df *ABS*	00000000 stdio.c
00000000 l    df *ABS*	00000000 writer.c
00000000 l    df *ABS*	00000000 closer.c
00000000 l    df *ABS*	00000000 fstatr.c
00000000 l    df *ABS*	00000000 isattyr.c
00000000 l    df *ABS*	00000000 lseekr.c
00000000 l    df *ABS*	00000000 memchr.c
00000000 l    df *ABS*	00000000 mlock.c
00000000 l    df *ABS*	00000000 readr.c
00000000 l    df *ABS*	00000000 close.c
00000000 l    df *ABS*	00000000 fstat.c
00000000 l    df *ABS*	00000000 isatty.c
00000000 l    df *ABS*	00000000 lseek.c
00000000 l    df *ABS*	00000000 read.c
00000000 l    df *ABS*	00000000 impure.c
20000000 l     O .data	00000060 impure_data
00000000 l    df *ABS*	00000000 reent.c
000001e0 g     F .text	0000001a EXTI2_IRQHandler
00000480 g     F .text	0000003c rcc_init_pll
000032a2 g     F .text	00000028 _isatty_r
00002198 g     F .text	000000da _puts_r
00000434 g     F .text	0000004c rcc_hse_init
000032ca g     F .text	0000002c _lseek_r
00001ae2 g     F .text	00000048 nano_write_reg
00002158 g     F .text	00000040 printf
20000860 g       .data	00000000 __global_pointer$
000019b4 g     F .text	0000003c fifo_push
0000201c  w      .text	00000000 TIM1_CC_IRQHandler
000031e6 g     F .text	00000036 __sseek
000026a2 g     F .text	00000066 __sinit
0000227c g     F .text	000000c0 __swbuf_r
000001aa g     F .text	00000002 HardFault_Handler
0000265c g     F .text	00000046 __sfmoreglue
00003312 g     F .text	00000002 __malloc_unlock
00001590 g     F .text	00000062 cdc_init
20000080 g     O .bss	00000004 exti11_callback
0000201c  w      .text	00000000 SysTick_Handler
0000201c  w      .text	00000000 PVD_IRQHandler
200000a8 g     O .bss	00000004 exti6_callback
000001a8 g     F .text	00000002 NMI_Handler
000001fa g     F .text	0000001a EXTI3_IRQHandler
20000924 g     O .bss	00000001 ep3_t0_num_bytes
0000105e g     F .text	000000c4 cdc_on_out
20000925 g     O .bss	00000001 ep2_t1_num_bytes
00003278 g     F .text	0000002a _fstat_r
2000094c g     O .bss	00000004 errno
200000e3 g     O .bss	00000001 trigger_mode
000003ce g     F .text	00000066 gpio_set_mode
20000078 g       .bss	00000000 _sbss
000005fa g     F .text	00000026 rcc_compute_pclk1_freq
00000800 g       *ABS*	00000000 __stack_size
20000926 g     O .bss	00000001 ep2_t0_read_offset
20000927 g     O .bss	00000001 ep3_wip
0000201c  w      .text	00000000 USBFS_IRQHandler
00001ac2 g     F .text	00000020 fw_write_rtmi_control
200000f0 g     O .bss	00000400 uart1_tx_buf
200000da g     O .bss	00000002 rtmi_control
000014cc g     F .text	00000070 usbd_read_bytes_from_pma
00002652 g     F .text	0000000a _cleanup_r
000001ac g     F .text	0000001a EXTI0_IRQHandler
0000201c  w      .text	00000000 I2C2_EV_IRQHandler
00001442 g     F .text	0000008a usbd_write_bytes_to_pma
00002272 g     F .text	0000000a puts
00000d9e g     F .text	00000026 usbd_read_from_pma
0000334c g     F .text	0000000c _fstat
00000664 g     F .text	0000002e spi_init
20000084 g     O .bss	00000004 exti12_callback
00000004 g       .init	00000000 _einit
000019a4 g     F .text	00000010 fifo_init
2000008c g     O .bss	00000004 exti14_callback
200000c0 g     O .bss	00000004 usbd_out_callback
00000562 g     F .text	00000072 rcc_compute_sysclk_freq
20000944 g     O .bss	00000008 rtmi_channels
0000201c  w      .text	00000000 ADC1_2_IRQHandler
00000692 g     F .text	00000012 spi_transfer
000019f0 g     F .text	0000002e fifo_pop
0000201c  w      .text	00000000 Break_Point_Handler
20000928 g     O .bss	00000001 ep2_t1_read_offset
0000201c  w      .text	00000000 SPI1_IRQHandler
0000313e g     F .text	0000002a _sbrk_r
0000201c  w      .text	00000000 TAMPER_IRQHandler
00003314 g     F .text	0000002c _read_r
20000929 g     O .bss	00000001 ep2_t0_num_bytes
200000e2 g     O .bss	00000001 trigger_channel
2000092a g     O .bss	00000002 cdc_last_status_time
20000098 g     O .bss	00000004 exti2_callback
0000201c  w      .text	00000000 Ecall_M_Mode_Handler
20004800 g       .stack	00000000 _heap_end
00003358 g     F .text	0000000c _isatty
20000074 g     O .data	00000004 _global_impure_ptr
20000060 g     O .data	00000008 cdc_line_coding
0000201c  w      .text	00000000 DMA1_Channel4_IRQHandler
00002132 g     F .text	00000026 _sbrk
00001122 g     F .text	00000320 cdc_on_setup
2000092c g     O .bss	00000001 cdc_config
20000910 g     O .bss	00000010 ep_config
200004f0 g     O .bss	00000010 uart1_rx_fifo_i
2000009c g     O .bss	00000004 exti3_callback
200000d4 g     O .bss	00000004 usbd_wakeup_callback
0000078a g     F .text	00000060 USART3_IRQHandler
200000b0 g     O .bss	00000004 exti8_callback
0000201c  w      .text	00000000 RTC_IRQHandler
00000dc4 g     F .text	000000fc cdc_on_sof
20000950 g       .bss	00000000 _ebss
0000201c  w      .text	00000000 DMA1_Channel7_IRQHandler
0000201c  w      .text	00000000 CAN1_RX1_IRQHandler
0000153c g     F .text	00000054 cdc_set_serial_state
000017e4 g     F .text	000001c0 cdc_write_bytes
0000201c  w      .text	00000000 TIM4_IRQHandler
2000092d g     O .bss	00000001 ep3_write_select
0000160e g     F .text	0000003e cdc_peek
200000ac g     O .bss	00000004 exti7_callback
000035bc g     O .text	00000020 __sf_fake_stderr
0000201c  w      .text	00000000 I2C1_EV_IRQHandler
20000930 g     O .bss	00000004 descriptor_ptr
200000dc g     O .bss	00000002 rtmi_num_samples
200000de g     O .bss	00000002 rtmi_sample_count
0000201c  w      .text	00000000 DMA1_Channel6_IRQHandler
20000934 g     O .bss	00000001 ep2_read_select
00002aae g     F .text	00000042 __sfputs_r
0000084a g     F .text	0000007e uart_init
20000935 g     O .bss	00000001 cdc_address
000007ea g     F .text	00000060 UART4_IRQHandler
000032f6 g     F .text	0000001a memchr
00002908 g     F .text	000000a8 _free_r
0000201c  w      .text	00000000 TIM3_IRQHandler
0000201c  w      .text	00000000 RCC_IRQHandler
0000201c  w      .text	00000000 TIM1_TRG_COM_IRQHandler
0000201c  w      .text	00000000 DMA1_Channel1_IRQHandler
00000000 g       .init	00000000 _start
000020a4 g     F .text	0000002e delay_init
00003364 g     F .text	0000000c _lseek
200000b4 g     O .bss	00000004 exti9_callback
000002ea g     F .text	000000e4 EXTI15_10_IRQHandler
200000a4 g     O .bss	00000004 exti5_callback
200000d8 g     O .bss	00000001 cdc_control_line_state
20000090 g     O .bss	00000004 exti15_callback
0000201c  w      .text	00000000 DMA1_Channel8_IRQHandler
00003250 g     F .text	00000028 _close_r
20000000 g       .dalign	00000000 _data_vma
200000a0 g     O .bss	00000004 exti4_callback
20000500 g     O .bss	00000400 uart1_rx_buf
0000233c g     F .text	0000010c __swsetup_r
0000022e g     F .text	000000bc EXTI9_5_IRQHandler
00002708 g     F .text	0000009c __sfp
00003168 g     F .text	00000030 __sread
000020d2 g     F .text	00000036 delay_us
20000094 g     O .bss	00000004 exti1_callback
00003310 g     F .text	00000002 __malloc_lock
00002584 g     F .text	00000064 _fflush_r
0000201c  w      .text	00000000 SPI2_IRQHandler
000035dc g     O .text	00000020 __sf_fake_stdin
00000100 g     F .text	000000a8 memset
00000ec0 g     F .text	0000006e cdc_on_rst
00001cc6 g     F .text	00000356 main
00000bfc g     F .text	0000017c usbd_init
2000007c g     O .bss	00000004 exti10_callback
0000321c g     F .text	00000006 __sclose
000029b0 g     F .text	000000d4 _malloc_r
200000d0 g     O .bss	00000004 usbd_suspend_callback
200000bc g     O .bss	00000004 usbd_in_callback
0000201c  w      .text	00000000 DMA1_Channel5_IRQHandler
00000214 g     F .text	0000001a EXTI4_IRQHandler
20000936 g     O .bss	00000008 cdc_setup_buf
00000a00 g     F .text	000001c4 USB_LP_CAN1_RX0_IRQHandler
20000088 g     O .bss	00000004 exti13_callback
000005d4 g     F .text	00000026 rcc_compute_hclk_freq
00001a1e g     F .text	000000a4 fifo_write
200000e0 g     O .bss	00000002 rtmi_threshold
00000648 g     F .text	0000001c rcc_compute_adcclk
00002158 g     F .text	00000040 iprintf
0000098e g     F .text	00000072 USB_HP_CAN1_TX_IRQHandler
200000c4 g     O .bss	00000004 usbd_reset_callback
00000000 g       .init	00000000 _sinit
00003222 g     F .text	0000002e _write_r
2000093e g     O .bss	00000001 ep3_t1_num_bytes
0000201c  w      .text	00000000 DMA1_Channel3_IRQHandler
20000900 g     O .bss	00000010 uart1_tx_fifo_i
00002d8a g     F .text	0000010c _printf_common
2000006c g     O .data	00000004 _impure_ptr
0000201c  w      .text	00000000 TIM1_UP_IRQHandler
00002448 g     F .text	0000013c __sflush_r
200000b8 g     O .bss	00000004 usbd_esof_callback
20000920 g     O .bss	00000002 sof_count
0000201c  w      .text	00000000 WWDG_IRQHandler
00000d78 g     F .text	00000026 usbd_write_to_pma
00000620 g     F .text	00000028 rcc_compute_pclk2_freq
0000201c  w      .text	00000000 Ecall_U_Mode_Handler
200000cc g     O .bss	00000004 usbd_sof_callback
0000201c  w      .text	00000000 TIM2_IRQHandler
20005000 g       .stack	00000000 _eusrstack
0000201c  w      .text	00000000 SW_Handler
000008c8 g     F .text	00000006 uart_bytes_available
000015f2 g     F .text	0000001c cdc_bytes_available
0000201c  w      .text	00000000 TIM1_BRK_IRQHandler
00002810 g     F .text	0000005a __swhatbuf_r
000008ce g     F .text	000000c0 uart_write_bytes
000001c6 g     F .text	0000001a EXTI1_IRQHandler
00002108 g     F .text	0000002a _write
20000078 g       .data	00000000 _edata
00001ba4 g     F .text	00000122 on_foc_int
20000950 g       .bss	00000000 _end
20000078 g     O .bss	00000004 exti0_callback
0000201c  w      .text	00000000 RTCAlarm_IRQHandler
00003658 g       .dlalign	00000000 _data_lma
0000072a g     F .text	00000060 USART2_IRQHandler
00003198 g     F .text	0000004e __swrite
200000d9 g     O .bss	00000001 num_channels
00002af0 g     F .text	0000029a _vfiprintf_r
000027a4 g     F .text	0000006c _fwalk_reent
0000201c  w      .text	00000000 I2C2_ER_IRQHandler
0000201c  w      .text	00000000 DMA1_Channel2_IRQHandler
000035fc g     O .text	00000020 __sf_fake_stdout
00003370 g     F .text	0000000c _read
0000201e  w      .text	00000000 handle_reset
0000201c  w      .text	00000000 CAN1_SCE_IRQHandler
0000201c  w      .text	00000000 FLASH_IRQHandler
000004bc g     F .text	000000a6 rcc_system_init
0000201c  w      .text	00000000 USBFSWakeUp_IRQHandler
000006a4 g     F .text	00000086 USART1_IRQHandler
0000286a g     F .text	0000009e __smakebuf_r
00002e96 g     F .text	000002a8 _printf_i
200000ec g     O .bss	00000004 __malloc_sbrk_start
0000201c  w      .text	00000000 I2C1_ER_IRQHandler
0000164c g     F .text	00000198 cdc_read_bytes
200000e8 g     O .bss	00000004 __malloc_free_list
00000f2e g     F .text	00000130 cdc_on_in
00002af0 g     F .text	0000029a _vfprintf_r
20000940 g     O .bss	00000002 cdc_last_data_time
00001b2a g     F .text	0000007a nano_read_reg
200000c8 g     O .bss	00000004 usbd_setup_callback
00000bc4 g     F .text	00000038 USBWakeUp_IRQHandler
00003340 g     F .text	0000000c _close



Disassembly of section .init:

00000000 <_sinit>:
   0:	01e0206f          	j	201e <handle_reset>

Disassembly of section .vector:

00000004 <_vector_base>:
	...
   c:	01a8                	addi	a0,sp,200
   e:	0000                	unimp
  10:	01aa                	slli	gp,gp,0xa
  12:	0000                	unimp
  14:	0000                	unimp
  16:	0000                	unimp
  18:	201c                	fld	fa5,0(s0)
	...
  22:	0000                	unimp
  24:	201c                	fld	fa5,0(s0)
  26:	0000                	unimp
  28:	201c                	fld	fa5,0(s0)
	...
  32:	0000                	unimp
  34:	201c                	fld	fa5,0(s0)
  36:	0000                	unimp
  38:	0000                	unimp
  3a:	0000                	unimp
  3c:	201c                	fld	fa5,0(s0)
  3e:	0000                	unimp
  40:	0000                	unimp
  42:	0000                	unimp
  44:	201c                	fld	fa5,0(s0)
  46:	0000                	unimp
  48:	201c                	fld	fa5,0(s0)
  4a:	0000                	unimp
  4c:	201c                	fld	fa5,0(s0)
  4e:	0000                	unimp
  50:	201c                	fld	fa5,0(s0)
  52:	0000                	unimp
  54:	201c                	fld	fa5,0(s0)
  56:	0000                	unimp
  58:	201c                	fld	fa5,0(s0)
  5a:	0000                	unimp
  5c:	01ac                	addi	a1,sp,200
  5e:	0000                	unimp
  60:	01c6                	slli	gp,gp,0x11
  62:	0000                	unimp
  64:	01e0                	addi	s0,sp,204
  66:	0000                	unimp
  68:	01fa                	slli	gp,gp,0x1e
  6a:	0000                	unimp
  6c:	0214                	addi	a3,sp,256
  6e:	0000                	unimp
  70:	201c                	fld	fa5,0(s0)
  72:	0000                	unimp
  74:	201c                	fld	fa5,0(s0)
  76:	0000                	unimp
  78:	201c                	fld	fa5,0(s0)
  7a:	0000                	unimp
  7c:	201c                	fld	fa5,0(s0)
  7e:	0000                	unimp
  80:	201c                	fld	fa5,0(s0)
  82:	0000                	unimp
  84:	201c                	fld	fa5,0(s0)
  86:	0000                	unimp
  88:	201c                	fld	fa5,0(s0)
  8a:	0000                	unimp
  8c:	201c                	fld	fa5,0(s0)
  8e:	0000                	unimp
  90:	098e                	slli	s3,s3,0x3
  92:	0000                	unimp
  94:	0a00                	addi	s0,sp,272
  96:	0000                	unimp
  98:	201c                	fld	fa5,0(s0)
  9a:	0000                	unimp
  9c:	201c                	fld	fa5,0(s0)
  9e:	0000                	unimp
  a0:	022e                	slli	tp,tp,0xb
  a2:	0000                	unimp
  a4:	201c                	fld	fa5,0(s0)
  a6:	0000                	unimp
  a8:	201c                	fld	fa5,0(s0)
  aa:	0000                	unimp
  ac:	201c                	fld	fa5,0(s0)
  ae:	0000                	unimp
  b0:	201c                	fld	fa5,0(s0)
  b2:	0000                	unimp
  b4:	201c                	fld	fa5,0(s0)
  b6:	0000                	unimp
  b8:	201c                	fld	fa5,0(s0)
  ba:	0000                	unimp
  bc:	201c                	fld	fa5,0(s0)
  be:	0000                	unimp
  c0:	201c                	fld	fa5,0(s0)
  c2:	0000                	unimp
  c4:	201c                	fld	fa5,0(s0)
  c6:	0000                	unimp
  c8:	201c                	fld	fa5,0(s0)
  ca:	0000                	unimp
  cc:	201c                	fld	fa5,0(s0)
  ce:	0000                	unimp
  d0:	201c                	fld	fa5,0(s0)
  d2:	0000                	unimp
  d4:	201c                	fld	fa5,0(s0)
  d6:	0000                	unimp
  d8:	06a4                	addi	s1,sp,840
  da:	0000                	unimp
  dc:	072a                	slli	a4,a4,0xa
  de:	0000                	unimp
  e0:	078a                	slli	a5,a5,0x2
  e2:	0000                	unimp
  e4:	02ea                	slli	t0,t0,0x1a
  e6:	0000                	unimp
  e8:	201c                	fld	fa5,0(s0)
  ea:	0000                	unimp
  ec:	0bc4                	addi	s1,sp,468
  ee:	0000                	unimp
  f0:	201c                	fld	fa5,0(s0)
  f2:	0000                	unimp
  f4:	201c                	fld	fa5,0(s0)
  f6:	0000                	unimp
  f8:	07ea                	slli	a5,a5,0x1a
  fa:	0000                	unimp
  fc:	201c                	fld	fa5,0(s0)
	...

Disassembly of section .text:

00000100 <memset>:
     100:	433d                	li	t1,15
     102:	872a                	mv	a4,a0
     104:	02c37363          	bgeu	t1,a2,12a <memset+0x2a>
     108:	00f77793          	andi	a5,a4,15
     10c:	efbd                	bnez	a5,18a <memset+0x8a>
     10e:	e5ad                	bnez	a1,178 <memset+0x78>
     110:	ff067693          	andi	a3,a2,-16
     114:	8a3d                	andi	a2,a2,15
     116:	96ba                	add	a3,a3,a4
     118:	c30c                	sw	a1,0(a4)
     11a:	c34c                	sw	a1,4(a4)
     11c:	c70c                	sw	a1,8(a4)
     11e:	c74c                	sw	a1,12(a4)
     120:	0741                	addi	a4,a4,16
     122:	fed76be3          	bltu	a4,a3,118 <memset+0x18>
     126:	e211                	bnez	a2,12a <memset+0x2a>
     128:	8082                	ret
     12a:	40c306b3          	sub	a3,t1,a2
     12e:	068a                	slli	a3,a3,0x2
     130:	00000297          	auipc	t0,0x0
     134:	9696                	add	a3,a3,t0
     136:	00a68067          	jr	10(a3)
     13a:	00b70723          	sb	a1,14(a4)
     13e:	00b706a3          	sb	a1,13(a4)
     142:	00b70623          	sb	a1,12(a4)
     146:	00b705a3          	sb	a1,11(a4)
     14a:	00b70523          	sb	a1,10(a4)
     14e:	00b704a3          	sb	a1,9(a4)
     152:	00b70423          	sb	a1,8(a4)
     156:	00b703a3          	sb	a1,7(a4)
     15a:	00b70323          	sb	a1,6(a4)
     15e:	00b702a3          	sb	a1,5(a4)
     162:	00b70223          	sb	a1,4(a4)
     166:	00b701a3          	sb	a1,3(a4)
     16a:	00b70123          	sb	a1,2(a4)
     16e:	00b700a3          	sb	a1,1(a4)
     172:	00b70023          	sb	a1,0(a4)
     176:	8082                	ret
     178:	0ff5f593          	andi	a1,a1,255
     17c:	00859693          	slli	a3,a1,0x8
     180:	8dd5                	or	a1,a1,a3
     182:	01059693          	slli	a3,a1,0x10
     186:	8dd5                	or	a1,a1,a3
     188:	b761                	j	110 <memset+0x10>
     18a:	00279693          	slli	a3,a5,0x2
     18e:	00000297          	auipc	t0,0x0
     192:	9696                	add	a3,a3,t0
     194:	8286                	mv	t0,ra
     196:	fa8680e7          	jalr	-88(a3)
     19a:	8096                	mv	ra,t0
     19c:	17c1                	addi	a5,a5,-16
     19e:	8f1d                	sub	a4,a4,a5
     1a0:	963e                	add	a2,a2,a5
     1a2:	f8c374e3          	bgeu	t1,a2,12a <memset+0x2a>
     1a6:	b7a5                	j	10e <memset+0xe>

000001a8 <NMI_Handler>:
     1a8:	a001                	j	1a8 <NMI_Handler>

000001aa <HardFault_Handler>:
     1aa:	a001                	j	1aa <HardFault_Handler>

000001ac <EXTI0_IRQHandler>:
     1ac:	8181a783          	lw	a5,-2024(gp) # 20000078 <_edata>
     1b0:	c391                	beqz	a5,1b4 <EXTI0_IRQHandler+0x8>
     1b2:	9782                	jalr	a5
     1b4:	400107b7          	lui	a5,0x40010
     1b8:	4705                	li	a4,1
     1ba:	40e7aa23          	sw	a4,1044(a5) # 40010414 <_eusrstack+0x2000b414>
     1be:	40078793          	addi	a5,a5,1024
     1c2:	30200073          	mret

000001c6 <EXTI1_IRQHandler>:
     1c6:	8341a783          	lw	a5,-1996(gp) # 20000094 <exti1_callback>
     1ca:	c391                	beqz	a5,1ce <EXTI1_IRQHandler+0x8>
     1cc:	9782                	jalr	a5
     1ce:	400107b7          	lui	a5,0x40010
     1d2:	4709                	li	a4,2
     1d4:	40e7aa23          	sw	a4,1044(a5) # 40010414 <_eusrstack+0x2000b414>
     1d8:	40078793          	addi	a5,a5,1024
     1dc:	30200073          	mret

000001e0 <EXTI2_IRQHandler>:
     1e0:	8381a783          	lw	a5,-1992(gp) # 20000098 <exti2_callback>
     1e4:	c391                	beqz	a5,1e8 <EXTI2_IRQHandler+0x8>
     1e6:	9782                	jalr	a5
     1e8:	400107b7          	lui	a5,0x40010
     1ec:	4711                	li	a4,4
     1ee:	40e7aa23          	sw	a4,1044(a5) # 40010414 <_eusrstack+0x2000b414>
     1f2:	40078793          	addi	a5,a5,1024
     1f6:	30200073          	mret

000001fa <EXTI3_IRQHandler>:
     1fa:	83c1a783          	lw	a5,-1988(gp) # 2000009c <exti3_callback>
     1fe:	c391                	beqz	a5,202 <EXTI3_IRQHandler+0x8>
     200:	9782                	jalr	a5
     202:	400107b7          	lui	a5,0x40010
     206:	4721                	li	a4,8
     208:	40e7aa23          	sw	a4,1044(a5) # 40010414 <_eusrstack+0x2000b414>
     20c:	40078793          	addi	a5,a5,1024
     210:	30200073          	mret

00000214 <EXTI4_IRQHandler>:
     214:	8401a783          	lw	a5,-1984(gp) # 200000a0 <exti4_callback>
     218:	c391                	beqz	a5,21c <EXTI4_IRQHandler+0x8>
     21a:	9782                	jalr	a5
     21c:	400107b7          	lui	a5,0x40010
     220:	4741                	li	a4,16
     222:	40e7aa23          	sw	a4,1044(a5) # 40010414 <_eusrstack+0x2000b414>
     226:	40078793          	addi	a5,a5,1024
     22a:	30200073          	mret

0000022e <EXTI9_5_IRQHandler>:
     22e:	400107b7          	lui	a5,0x40010
     232:	40078793          	addi	a5,a5,1024 # 40010400 <_eusrstack+0x2000b400>
     236:	4bdc                	lw	a5,20(a5)
     238:	0207f793          	andi	a5,a5,32
     23c:	cb99                	beqz	a5,252 <EXTI9_5_IRQHandler+0x24>
     23e:	8441a783          	lw	a5,-1980(gp) # 200000a4 <exti5_callback>
     242:	c391                	beqz	a5,246 <EXTI9_5_IRQHandler+0x18>
     244:	9782                	jalr	a5
     246:	400107b7          	lui	a5,0x40010
     24a:	02000713          	li	a4,32
     24e:	40e7aa23          	sw	a4,1044(a5) # 40010414 <_eusrstack+0x2000b414>
     252:	400107b7          	lui	a5,0x40010
     256:	40078793          	addi	a5,a5,1024 # 40010400 <_eusrstack+0x2000b400>
     25a:	4bdc                	lw	a5,20(a5)
     25c:	0407f793          	andi	a5,a5,64
     260:	cb99                	beqz	a5,276 <EXTI9_5_IRQHandler+0x48>
     262:	8481a783          	lw	a5,-1976(gp) # 200000a8 <exti6_callback>
     266:	c391                	beqz	a5,26a <EXTI9_5_IRQHandler+0x3c>
     268:	9782                	jalr	a5
     26a:	400107b7          	lui	a5,0x40010
     26e:	04000713          	li	a4,64
     272:	40e7aa23          	sw	a4,1044(a5) # 40010414 <_eusrstack+0x2000b414>
     276:	400107b7          	lui	a5,0x40010
     27a:	40078793          	addi	a5,a5,1024 # 40010400 <_eusrstack+0x2000b400>
     27e:	4bdc                	lw	a5,20(a5)
     280:	0807f793          	andi	a5,a5,128
     284:	cb99                	beqz	a5,29a <EXTI9_5_IRQHandler+0x6c>
     286:	84c1a783          	lw	a5,-1972(gp) # 200000ac <exti7_callback>
     28a:	c391                	beqz	a5,28e <EXTI9_5_IRQHandler+0x60>
     28c:	9782                	jalr	a5
     28e:	400107b7          	lui	a5,0x40010
     292:	08000713          	li	a4,128
     296:	40e7aa23          	sw	a4,1044(a5) # 40010414 <_eusrstack+0x2000b414>
     29a:	400107b7          	lui	a5,0x40010
     29e:	40078793          	addi	a5,a5,1024 # 40010400 <_eusrstack+0x2000b400>
     2a2:	4bdc                	lw	a5,20(a5)
     2a4:	1007f793          	andi	a5,a5,256
     2a8:	cb99                	beqz	a5,2be <EXTI9_5_IRQHandler+0x90>
     2aa:	8501a783          	lw	a5,-1968(gp) # 200000b0 <exti8_callback>
     2ae:	c391                	beqz	a5,2b2 <EXTI9_5_IRQHandler+0x84>
     2b0:	9782                	jalr	a5
     2b2:	400107b7          	lui	a5,0x40010
     2b6:	10000713          	li	a4,256
     2ba:	40e7aa23          	sw	a4,1044(a5) # 40010414 <_eusrstack+0x2000b414>
     2be:	400107b7          	lui	a5,0x40010
     2c2:	40078793          	addi	a5,a5,1024 # 40010400 <_eusrstack+0x2000b400>
     2c6:	4bdc                	lw	a5,20(a5)
     2c8:	2007f793          	andi	a5,a5,512
     2cc:	cf89                	beqz	a5,2e6 <EXTI9_5_IRQHandler+0xb8>
     2ce:	8541a783          	lw	a5,-1964(gp) # 200000b4 <exti9_callback>
     2d2:	c391                	beqz	a5,2d6 <EXTI9_5_IRQHandler+0xa8>
     2d4:	9782                	jalr	a5
     2d6:	400107b7          	lui	a5,0x40010
     2da:	20000713          	li	a4,512
     2de:	40e7aa23          	sw	a4,1044(a5) # 40010414 <_eusrstack+0x2000b414>
     2e2:	40078793          	addi	a5,a5,1024
     2e6:	30200073          	mret

000002ea <EXTI15_10_IRQHandler>:
     2ea:	400107b7          	lui	a5,0x40010
     2ee:	40078793          	addi	a5,a5,1024 # 40010400 <_eusrstack+0x2000b400>
     2f2:	4bdc                	lw	a5,20(a5)
     2f4:	4007f793          	andi	a5,a5,1024
     2f8:	cb99                	beqz	a5,30e <EXTI15_10_IRQHandler+0x24>
     2fa:	81c1a783          	lw	a5,-2020(gp) # 2000007c <exti10_callback>
     2fe:	c391                	beqz	a5,302 <EXTI15_10_IRQHandler+0x18>
     300:	9782                	jalr	a5
     302:	400107b7          	lui	a5,0x40010
     306:	40000713          	li	a4,1024
     30a:	40e7aa23          	sw	a4,1044(a5) # 40010414 <_eusrstack+0x2000b414>
     30e:	400107b7          	lui	a5,0x40010
     312:	40078793          	addi	a5,a5,1024 # 40010400 <_eusrstack+0x2000b400>
     316:	4bdc                	lw	a5,20(a5)
     318:	01479713          	slli	a4,a5,0x14
     31c:	00075d63          	bgez	a4,336 <EXTI15_10_IRQHandler+0x4c>
     320:	8201a783          	lw	a5,-2016(gp) # 20000080 <exti11_callback>
     324:	c391                	beqz	a5,328 <EXTI15_10_IRQHandler+0x3e>
     326:	9782                	jalr	a5
     328:	6705                	lui	a4,0x1
     32a:	400107b7          	lui	a5,0x40010
     32e:	80070713          	addi	a4,a4,-2048 # 800 <__stack_size>
     332:	40e7aa23          	sw	a4,1044(a5) # 40010414 <_eusrstack+0x2000b414>
     336:	400107b7          	lui	a5,0x40010
     33a:	40078793          	addi	a5,a5,1024 # 40010400 <_eusrstack+0x2000b400>
     33e:	4bdc                	lw	a5,20(a5)
     340:	01379713          	slli	a4,a5,0x13
     344:	00075b63          	bgez	a4,35a <EXTI15_10_IRQHandler+0x70>
     348:	8241a783          	lw	a5,-2012(gp) # 20000084 <exti12_callback>
     34c:	c391                	beqz	a5,350 <EXTI15_10_IRQHandler+0x66>
     34e:	9782                	jalr	a5
     350:	400107b7          	lui	a5,0x40010
     354:	6705                	lui	a4,0x1
     356:	40e7aa23          	sw	a4,1044(a5) # 40010414 <_eusrstack+0x2000b414>
     35a:	400107b7          	lui	a5,0x40010
     35e:	40078793          	addi	a5,a5,1024 # 40010400 <_eusrstack+0x2000b400>
     362:	4bdc                	lw	a5,20(a5)
     364:	01279713          	slli	a4,a5,0x12
     368:	00075b63          	bgez	a4,37e <EXTI15_10_IRQHandler+0x94>
     36c:	8281a783          	lw	a5,-2008(gp) # 20000088 <exti13_callback>
     370:	c391                	beqz	a5,374 <EXTI15_10_IRQHandler+0x8a>
     372:	9782                	jalr	a5
     374:	400107b7          	lui	a5,0x40010
     378:	6709                	lui	a4,0x2
     37a:	40e7aa23          	sw	a4,1044(a5) # 40010414 <_eusrstack+0x2000b414>
     37e:	400107b7          	lui	a5,0x40010
     382:	40078793          	addi	a5,a5,1024 # 40010400 <_eusrstack+0x2000b400>
     386:	4bdc                	lw	a5,20(a5)
     388:	01179713          	slli	a4,a5,0x11
     38c:	00075b63          	bgez	a4,3a2 <EXTI15_10_IRQHandler+0xb8>
     390:	82c1a783          	lw	a5,-2004(gp) # 2000008c <exti14_callback>
     394:	c391                	beqz	a5,398 <EXTI15_10_IRQHandler+0xae>
     396:	9782                	jalr	a5
     398:	400107b7          	lui	a5,0x40010
     39c:	6711                	lui	a4,0x4
     39e:	40e7aa23          	sw	a4,1044(a5) # 40010414 <_eusrstack+0x2000b414>
     3a2:	400107b7          	lui	a5,0x40010
     3a6:	40078793          	addi	a5,a5,1024 # 40010400 <_eusrstack+0x2000b400>
     3aa:	4bdc                	lw	a5,20(a5)
     3ac:	01079713          	slli	a4,a5,0x10
     3b0:	00075d63          	bgez	a4,3ca <EXTI15_10_IRQHandler+0xe0>
     3b4:	8301a783          	lw	a5,-2000(gp) # 20000090 <exti15_callback>
     3b8:	c391                	beqz	a5,3bc <EXTI15_10_IRQHandler+0xd2>
     3ba:	9782                	jalr	a5
     3bc:	400107b7          	lui	a5,0x40010
     3c0:	6721                	lui	a4,0x8
     3c2:	40e7aa23          	sw	a4,1044(a5) # 40010414 <_eusrstack+0x2000b414>
     3c6:	40078793          	addi	a5,a5,1024
     3ca:	30200073          	mret

000003ce <gpio_set_mode>:
     3ce:	872e                	mv	a4,a1
     3d0:	47a1                	li	a5,8
     3d2:	46bd                	li	a3,15
     3d4:	00167813          	andi	a6,a2,1
     3d8:	02080063          	beqz	a6,3f8 <gpio_set_mode+0x2a>
     3dc:	00052883          	lw	a7,0(a0)
     3e0:	fff6c813          	not	a6,a3
     3e4:	01187833          	and	a6,a6,a7
     3e8:	01052023          	sw	a6,0(a0)
     3ec:	00052803          	lw	a6,0(a0)
     3f0:	00e86833          	or	a6,a6,a4
     3f4:	01052023          	sw	a6,0(a0)
     3f8:	17fd                	addi	a5,a5,-1
     3fa:	0ff7f793          	andi	a5,a5,255
     3fe:	0692                	slli	a3,a3,0x4
     400:	0712                	slli	a4,a4,0x4
     402:	8205                	srli	a2,a2,0x1
     404:	fbe1                	bnez	a5,3d4 <gpio_set_mode+0x6>
     406:	47a1                	li	a5,8
     408:	473d                	li	a4,15
     40a:	00167693          	andi	a3,a2,1
     40e:	ca99                	beqz	a3,424 <gpio_set_mode+0x56>
     410:	00452803          	lw	a6,4(a0)
     414:	fff74693          	not	a3,a4
     418:	0106f6b3          	and	a3,a3,a6
     41c:	c154                	sw	a3,4(a0)
     41e:	4154                	lw	a3,4(a0)
     420:	8ecd                	or	a3,a3,a1
     422:	c154                	sw	a3,4(a0)
     424:	17fd                	addi	a5,a5,-1
     426:	0ff7f793          	andi	a5,a5,255
     42a:	0712                	slli	a4,a4,0x4
     42c:	0592                	slli	a1,a1,0x4
     42e:	8205                	srli	a2,a2,0x1
     430:	ffe9                	bnez	a5,40a <gpio_set_mode+0x3c>
     432:	8082                	ret

00000434 <rcc_hse_init>:
     434:	400217b7          	lui	a5,0x40021
     438:	4398                	lw	a4,0(a5)
     43a:	76c1                	lui	a3,0xffff0
     43c:	16fd                	addi	a3,a3,-1
     43e:	8f75                	and	a4,a4,a3
     440:	c398                	sw	a4,0(a5)
     442:	4398                	lw	a4,0(a5)
     444:	fff406b7          	lui	a3,0xfff40
     448:	16fd                	addi	a3,a3,-1
     44a:	8f75                	and	a4,a4,a3
     44c:	c398                	sw	a4,0(a5)
     44e:	4398                	lw	a4,0(a5)
     450:	66c1                	lui	a3,0x10
     452:	8d59                	or	a0,a0,a4
     454:	c388                	sw	a0,0(a5)
     456:	4398                	lw	a4,0(a5)
     458:	8f55                	or	a4,a4,a3
     45a:	c398                	sw	a4,0(a5)
     45c:	6785                	lui	a5,0x1
     45e:	40021737          	lui	a4,0x40021
     462:	4314                	lw	a3,0(a4)
     464:	00e69613          	slli	a2,a3,0xe
     468:	00064663          	bltz	a2,474 <rcc_hse_init+0x40>
     46c:	17fd                	addi	a5,a5,-1
     46e:	07c2                	slli	a5,a5,0x10
     470:	83c1                	srli	a5,a5,0x10
     472:	fbe5                	bnez	a5,462 <rcc_hse_init+0x2e>
     474:	400217b7          	lui	a5,0x40021
     478:	4388                	lw	a0,0(a5)
     47a:	8145                	srli	a0,a0,0x11
     47c:	8905                	andi	a0,a0,1
     47e:	8082                	ret

00000480 <rcc_init_pll>:
     480:	400217b7          	lui	a5,0x40021
     484:	4398                	lw	a4,0(a5)
     486:	ff0006b7          	lui	a3,0xff000
     48a:	16fd                	addi	a3,a3,-1
     48c:	8f75                	and	a4,a4,a3
     48e:	c398                	sw	a4,0(a5)
     490:	43d8                	lw	a4,4(a5)
     492:	ffc106b7          	lui	a3,0xffc10
     496:	16fd                	addi	a3,a3,-1
     498:	8f75                	and	a4,a4,a3
     49a:	c3d8                	sw	a4,4(a5)
     49c:	43d8                	lw	a4,4(a5)
     49e:	010006b7          	lui	a3,0x1000
     4a2:	8d59                	or	a0,a0,a4
     4a4:	c3c8                	sw	a0,4(a5)
     4a6:	4398                	lw	a4,0(a5)
     4a8:	8f55                	or	a4,a4,a3
     4aa:	c398                	sw	a4,0(a5)
     4ac:	40021737          	lui	a4,0x40021
     4b0:	431c                	lw	a5,0(a4)
     4b2:	00679693          	slli	a3,a5,0x6
     4b6:	fe06dde3          	bgez	a3,4b0 <rcc_init_pll+0x30>
     4ba:	8082                	ret

000004bc <rcc_system_init>:
     4bc:	1141                	addi	sp,sp,-16
     4be:	c422                	sw	s0,8(sp)
     4c0:	40021437          	lui	s0,0x40021
     4c4:	401c                	lw	a5,0(s0)
     4c6:	c606                	sw	ra,12(sp)
     4c8:	f83fc737          	lui	a4,0xf83fc
     4cc:	0017e793          	ori	a5,a5,1
     4d0:	c01c                	sw	a5,0(s0)
     4d2:	405c                	lw	a5,4(s0)
     4d4:	0731                	addi	a4,a4,12
     4d6:	4501                	li	a0,0
     4d8:	8ff9                	and	a5,a5,a4
     4da:	c05c                	sw	a5,4(s0)
     4dc:	401c                	lw	a5,0(s0)
     4de:	ff000737          	lui	a4,0xff000
     4e2:	177d                	addi	a4,a4,-1
     4e4:	8ff9                	and	a5,a5,a4
     4e6:	c01c                	sw	a5,0(s0)
     4e8:	40024737          	lui	a4,0x40024
     4ec:	80072783          	lw	a5,-2048(a4) # 40023800 <_eusrstack+0x2001e800>
     4f0:	0107e793          	ori	a5,a5,16
     4f4:	80f72023          	sw	a5,-2048(a4)
     4f8:	001f07b7          	lui	a5,0x1f0
     4fc:	c41c                	sw	a5,8(s0)
     4fe:	3f1d                	jal	434 <rcc_hse_init>
     500:	cd29                	beqz	a0,55a <rcc_system_init+0x9e>
     502:	405c                	lw	a5,4(s0)
     504:	7771                	lui	a4,0xffffc
     506:	7ff70713          	addi	a4,a4,2047 # ffffc7ff <_eusrstack+0xdfff77ff>
     50a:	f0f7f793          	andi	a5,a5,-241
     50e:	c05c                	sw	a5,4(s0)
     510:	405c                	lw	a5,4(s0)
     512:	00290537          	lui	a0,0x290
     516:	8ff7f793          	andi	a5,a5,-1793
     51a:	4007e793          	ori	a5,a5,1024
     51e:	c05c                	sw	a5,4(s0)
     520:	405c                	lw	a5,4(s0)
     522:	8ff9                	and	a5,a5,a4
     524:	c05c                	sw	a5,4(s0)
     526:	405c                	lw	a5,4(s0)
     528:	6731                	lui	a4,0xc
     52a:	8fd9                	or	a5,a5,a4
     52c:	c05c                	sw	a5,4(s0)
     52e:	405c                	lw	a5,4(s0)
     530:	ff400737          	lui	a4,0xff400
     534:	177d                	addi	a4,a4,-1
     536:	8ff9                	and	a5,a5,a4
     538:	00400737          	lui	a4,0x400
     53c:	8fd9                	or	a5,a5,a4
     53e:	c05c                	sw	a5,4(s0)
     540:	3781                	jal	480 <rcc_init_pll>
     542:	405c                	lw	a5,4(s0)
     544:	400216b7          	lui	a3,0x40021
     548:	4721                	li	a4,8
     54a:	9bf1                	andi	a5,a5,-4
     54c:	0027e793          	ori	a5,a5,2
     550:	c05c                	sw	a5,4(s0)
     552:	42dc                	lw	a5,4(a3)
     554:	8bb1                	andi	a5,a5,12
     556:	fee79ee3          	bne	a5,a4,552 <rcc_system_init+0x96>
     55a:	40b2                	lw	ra,12(sp)
     55c:	4422                	lw	s0,8(sp)
     55e:	0141                	addi	sp,sp,16
     560:	8082                	ret

00000562 <rcc_compute_sysclk_freq>:
     562:	40021737          	lui	a4,0x40021
     566:	435c                	lw	a5,4(a4)
     568:	4691                	li	a3,4
     56a:	8bb1                	andi	a5,a5,12
     56c:	04d78f63          	beq	a5,a3,5ca <rcc_compute_sysclk_freq+0x68>
     570:	46a1                	li	a3,8
     572:	00d78563          	beq	a5,a3,57c <rcc_compute_sysclk_freq+0x1a>
     576:	cbb1                	beqz	a5,5ca <rcc_compute_sysclk_freq+0x68>
     578:	4501                	li	a0,0
     57a:	8082                	ret
     57c:	4348                	lw	a0,4(a4)
     57e:	4745                	li	a4,17
     580:	8149                	srli	a0,a0,0x12
     582:	893d                	andi	a0,a0,15
     584:	00250793          	addi	a5,a0,2 # 290002 <_data_lma+0x28c9aa>
     588:	00e79363          	bne	a5,a4,58e <rcc_compute_sysclk_freq+0x2c>
     58c:	47c9                	li	a5,18
     58e:	40021737          	lui	a4,0x40021
     592:	4354                	lw	a3,4(a4)
     594:	00f69613          	slli	a2,a3,0xf
     598:	00065c63          	bgez	a2,5b0 <rcc_compute_sysclk_freq+0x4e>
     59c:	4358                	lw	a4,4(a4)
     59e:	00e71693          	slli	a3,a4,0xe
     5a2:	0006dd63          	bgez	a3,5bc <rcc_compute_sysclk_freq+0x5a>
     5a6:	003d1537          	lui	a0,0x3d1
     5aa:	90050513          	addi	a0,a0,-1792 # 3d0900 <_data_lma+0x3cd2a8>
     5ae:	a819                	j	5c4 <rcc_compute_sysclk_freq+0x62>
     5b0:	40024737          	lui	a4,0x40024
     5b4:	80072703          	lw	a4,-2048(a4) # 40023800 <_eusrstack+0x2001e800>
     5b8:	8b41                	andi	a4,a4,16
     5ba:	d775                	beqz	a4,5a6 <rcc_compute_sysclk_freq+0x44>
     5bc:	007a1537          	lui	a0,0x7a1
     5c0:	20050513          	addi	a0,a0,512 # 7a1200 <_data_lma+0x79dba8>
     5c4:	02f50533          	mul	a0,a0,a5
     5c8:	8082                	ret
     5ca:	007a1537          	lui	a0,0x7a1
     5ce:	20050513          	addi	a0,a0,512 # 7a1200 <_data_lma+0x79dba8>
     5d2:	8082                	ret

000005d4 <rcc_compute_hclk_freq>:
     5d4:	1141                	addi	sp,sp,-16
     5d6:	c606                	sw	ra,12(sp)
     5d8:	3769                	jal	562 <rcc_compute_sysclk_freq>
     5da:	400217b7          	lui	a5,0x40021
     5de:	43dc                	lw	a5,4(a5)
     5e0:	4701                	li	a4,0
     5e2:	0807f693          	andi	a3,a5,128
     5e6:	c689                	beqz	a3,5f0 <rcc_compute_hclk_freq+0x1c>
     5e8:	8391                	srli	a5,a5,0x4
     5ea:	8b9d                	andi	a5,a5,7
     5ec:	00178713          	addi	a4,a5,1 # 40021001 <_eusrstack+0x2001c001>
     5f0:	40b2                	lw	ra,12(sp)
     5f2:	00e55533          	srl	a0,a0,a4
     5f6:	0141                	addi	sp,sp,16
     5f8:	8082                	ret

000005fa <rcc_compute_pclk1_freq>:
     5fa:	1141                	addi	sp,sp,-16
     5fc:	c606                	sw	ra,12(sp)
     5fe:	3fd9                	jal	5d4 <rcc_compute_hclk_freq>
     600:	400217b7          	lui	a5,0x40021
     604:	43dc                	lw	a5,4(a5)
     606:	4701                	li	a4,0
     608:	4007f693          	andi	a3,a5,1024
     60c:	c689                	beqz	a3,616 <rcc_compute_pclk1_freq+0x1c>
     60e:	83a1                	srli	a5,a5,0x8
     610:	8b8d                	andi	a5,a5,3
     612:	00178713          	addi	a4,a5,1 # 40021001 <_eusrstack+0x2001c001>
     616:	40b2                	lw	ra,12(sp)
     618:	00e55533          	srl	a0,a0,a4
     61c:	0141                	addi	sp,sp,16
     61e:	8082                	ret

00000620 <rcc_compute_pclk2_freq>:
     620:	1141                	addi	sp,sp,-16
     622:	c606                	sw	ra,12(sp)
     624:	3f45                	jal	5d4 <rcc_compute_hclk_freq>
     626:	400217b7          	lui	a5,0x40021
     62a:	43dc                	lw	a5,4(a5)
     62c:	4701                	li	a4,0
     62e:	01279693          	slli	a3,a5,0x12
     632:	0006d663          	bgez	a3,63e <rcc_compute_pclk2_freq+0x1e>
     636:	83ad                	srli	a5,a5,0xb
     638:	8b8d                	andi	a5,a5,3
     63a:	00178713          	addi	a4,a5,1 # 40021001 <_eusrstack+0x2001c001>
     63e:	40b2                	lw	ra,12(sp)
     640:	00e55533          	srl	a0,a0,a4
     644:	0141                	addi	sp,sp,16
     646:	8082                	ret

00000648 <rcc_compute_adcclk>:
     648:	1141                	addi	sp,sp,-16
     64a:	c606                	sw	ra,12(sp)
     64c:	3fd1                	jal	620 <rcc_compute_pclk2_freq>
     64e:	400217b7          	lui	a5,0x40021
     652:	43dc                	lw	a5,4(a5)
     654:	40b2                	lw	ra,12(sp)
     656:	83b5                	srli	a5,a5,0xd
     658:	8b99                	andi	a5,a5,6
     65a:	0789                	addi	a5,a5,2
     65c:	02f55533          	divu	a0,a0,a5
     660:	0141                	addi	sp,sp,16
     662:	8082                	ret

00000664 <spi_init>:
     664:	00051023          	sh	zero,0(a0)
     668:	30400793          	li	a5,772
     66c:	00f51023          	sh	a5,0(a0)
     670:	00055783          	lhu	a5,0(a0)
     674:	8ddd                	or	a1,a1,a5
     676:	00b51023          	sh	a1,0(a0)
     67a:	4791                	li	a5,4
     67c:	00f51223          	sh	a5,4(a0)
     680:	00051e23          	sh	zero,28(a0)
     684:	00055783          	lhu	a5,0(a0)
     688:	0407e793          	ori	a5,a5,64
     68c:	00f51023          	sh	a5,0(a0)
     690:	8082                	ret

00000692 <spi_transfer>:
     692:	00b51623          	sh	a1,12(a0)
     696:	00855783          	lhu	a5,8(a0)
     69a:	8b85                	andi	a5,a5,1
     69c:	dfed                	beqz	a5,696 <spi_transfer+0x4>
     69e:	00c55503          	lhu	a0,12(a0)
     6a2:	8082                	ret

000006a4 <USART1_IRQHandler>:
     6a4:	40014737          	lui	a4,0x40014
     6a8:	80075783          	lhu	a5,-2048(a4) # 40013800 <_eusrstack+0x2000e800>
     6ac:	1141                	addi	sp,sp,-16
     6ae:	c622                	sw	s0,12(sp)
     6b0:	0207f793          	andi	a5,a5,32
     6b4:	80070693          	addi	a3,a4,-2048
     6b8:	c39d                	beqz	a5,6de <USART1_IRQHandler+0x3a>
     6ba:	80075783          	lhu	a5,-2048(a4)
     6be:	c9018513          	addi	a0,gp,-880 # 200004f0 <uart1_rx_fifo_i>
     6c2:	07c2                	slli	a5,a5,0x10
     6c4:	83c1                	srli	a5,a5,0x10
     6c6:	fdf7f793          	andi	a5,a5,-33
     6ca:	07c2                	slli	a5,a5,0x10
     6cc:	83c1                	srli	a5,a5,0x10
     6ce:	80f71023          	sh	a5,-2048(a4)
     6d2:	80475583          	lhu	a1,-2044(a4)
     6d6:	0ff5f593          	andi	a1,a1,255
     6da:	2da010ef          	jal	ra,19b4 <fifo_push>
     6de:	40014737          	lui	a4,0x40014
     6e2:	80075783          	lhu	a5,-2048(a4) # 40013800 <_eusrstack+0x2000e800>
     6e6:	80070413          	addi	s0,a4,-2048
     6ea:	0407f793          	andi	a5,a5,64
     6ee:	cb95                	beqz	a5,722 <USART1_IRQHandler+0x7e>
     6f0:	80075783          	lhu	a5,-2048(a4)
     6f4:	07c2                	slli	a5,a5,0x10
     6f6:	83c1                	srli	a5,a5,0x10
     6f8:	fbf7f793          	andi	a5,a5,-65
     6fc:	07c2                	slli	a5,a5,0x10
     6fe:	83c1                	srli	a5,a5,0x10
     700:	80f71023          	sh	a5,-2048(a4)
     704:	0a018793          	addi	a5,gp,160 # 20000900 <uart1_tx_fifo_i>
     708:	0087d783          	lhu	a5,8(a5) # 40021008 <_eusrstack+0x2001c008>
     70c:	07c2                	slli	a5,a5,0x10
     70e:	83c1                	srli	a5,a5,0x10
     710:	cb89                	beqz	a5,722 <USART1_IRQHandler+0x7e>
     712:	0a018513          	addi	a0,gp,160 # 20000900 <uart1_tx_fifo_i>
     716:	2da010ef          	jal	ra,19f0 <fifo_pop>
     71a:	0542                	slli	a0,a0,0x10
     71c:	8141                	srli	a0,a0,0x10
     71e:	00a41223          	sh	a0,4(s0) # 40021004 <_eusrstack+0x2001c004>
     722:	4432                	lw	s0,12(sp)
     724:	0141                	addi	sp,sp,16
     726:	30200073          	mret

0000072a <USART2_IRQHandler>:
     72a:	40004737          	lui	a4,0x40004
     72e:	40075783          	lhu	a5,1024(a4) # 40004400 <_eusrstack+0x1ffff400>
     732:	40070693          	addi	a3,a4,1024
     736:	0207f793          	andi	a5,a5,32
     73a:	c395                	beqz	a5,75e <USART2_IRQHandler+0x34>
     73c:	40075783          	lhu	a5,1024(a4)
     740:	4501                	li	a0,0
     742:	07c2                	slli	a5,a5,0x10
     744:	83c1                	srli	a5,a5,0x10
     746:	fdf7f793          	andi	a5,a5,-33
     74a:	07c2                	slli	a5,a5,0x10
     74c:	83c1                	srli	a5,a5,0x10
     74e:	40f71023          	sh	a5,1024(a4)
     752:	40475583          	lhu	a1,1028(a4)
     756:	0ff5f593          	andi	a1,a1,255
     75a:	25a010ef          	jal	ra,19b4 <fifo_push>
     75e:	40004737          	lui	a4,0x40004
     762:	40075783          	lhu	a5,1024(a4) # 40004400 <_eusrstack+0x1ffff400>
     766:	0407f793          	andi	a5,a5,64
     76a:	cf91                	beqz	a5,786 <USART2_IRQHandler+0x5c>
     76c:	40075783          	lhu	a5,1024(a4)
     770:	07c2                	slli	a5,a5,0x10
     772:	83c1                	srli	a5,a5,0x10
     774:	fbf7f793          	andi	a5,a5,-65
     778:	07c2                	slli	a5,a5,0x10
     77a:	83c1                	srli	a5,a5,0x10
     77c:	40f71023          	sh	a5,1024(a4)
     780:	00805783          	lhu	a5,8(zero) # 8 <_einit+0x4>
     784:	9002                	ebreak
     786:	30200073          	mret

0000078a <USART3_IRQHandler>:
     78a:	40005737          	lui	a4,0x40005
     78e:	80075783          	lhu	a5,-2048(a4) # 40004800 <_eusrstack+0x1ffff800>
     792:	80070693          	addi	a3,a4,-2048
     796:	0207f793          	andi	a5,a5,32
     79a:	c395                	beqz	a5,7be <USART3_IRQHandler+0x34>
     79c:	80075783          	lhu	a5,-2048(a4)
     7a0:	4501                	li	a0,0
     7a2:	07c2                	slli	a5,a5,0x10
     7a4:	83c1                	srli	a5,a5,0x10
     7a6:	fdf7f793          	andi	a5,a5,-33
     7aa:	07c2                	slli	a5,a5,0x10
     7ac:	83c1                	srli	a5,a5,0x10
     7ae:	80f71023          	sh	a5,-2048(a4)
     7b2:	80475583          	lhu	a1,-2044(a4)
     7b6:	0ff5f593          	andi	a1,a1,255
     7ba:	1fa010ef          	jal	ra,19b4 <fifo_push>
     7be:	40005737          	lui	a4,0x40005
     7c2:	80075783          	lhu	a5,-2048(a4) # 40004800 <_eusrstack+0x1ffff800>
     7c6:	0407f793          	andi	a5,a5,64
     7ca:	cf91                	beqz	a5,7e6 <USART3_IRQHandler+0x5c>
     7cc:	80075783          	lhu	a5,-2048(a4)
     7d0:	07c2                	slli	a5,a5,0x10
     7d2:	83c1                	srli	a5,a5,0x10
     7d4:	fbf7f793          	andi	a5,a5,-65
     7d8:	07c2                	slli	a5,a5,0x10
     7da:	83c1                	srli	a5,a5,0x10
     7dc:	80f71023          	sh	a5,-2048(a4)
     7e0:	00805783          	lhu	a5,8(zero) # 8 <_einit+0x4>
     7e4:	9002                	ebreak
     7e6:	30200073          	mret

000007ea <UART4_IRQHandler>:
     7ea:	40005737          	lui	a4,0x40005
     7ee:	c0075783          	lhu	a5,-1024(a4) # 40004c00 <_eusrstack+0x1ffffc00>
     7f2:	c0070693          	addi	a3,a4,-1024
     7f6:	0207f793          	andi	a5,a5,32
     7fa:	c395                	beqz	a5,81e <__stack_size+0x1e>
     7fc:	c0075783          	lhu	a5,-1024(a4)
     800:	4501                	li	a0,0
     802:	07c2                	slli	a5,a5,0x10
     804:	83c1                	srli	a5,a5,0x10
     806:	fdf7f793          	andi	a5,a5,-33
     80a:	07c2                	slli	a5,a5,0x10
     80c:	83c1                	srli	a5,a5,0x10
     80e:	c0f71023          	sh	a5,-1024(a4)
     812:	c0475583          	lhu	a1,-1020(a4)
     816:	0ff5f593          	andi	a1,a1,255
     81a:	19a010ef          	jal	ra,19b4 <fifo_push>
     81e:	40005737          	lui	a4,0x40005
     822:	c0075783          	lhu	a5,-1024(a4) # 40004c00 <_eusrstack+0x1ffffc00>
     826:	0407f793          	andi	a5,a5,64
     82a:	cf91                	beqz	a5,846 <__stack_size+0x46>
     82c:	c0075783          	lhu	a5,-1024(a4)
     830:	07c2                	slli	a5,a5,0x10
     832:	83c1                	srli	a5,a5,0x10
     834:	fbf7f793          	andi	a5,a5,-65
     838:	07c2                	slli	a5,a5,0x10
     83a:	83c1                	srli	a5,a5,0x10
     83c:	c0f71023          	sh	a5,-1024(a4)
     840:	00805783          	lhu	a5,8(zero) # 8 <_einit+0x4>
     844:	9002                	ebreak
     846:	30200073          	mret

0000084a <uart_init>:
     84a:	c9b5                	beqz	a1,8be <uart_init+0x74>
     84c:	1141                	addi	sp,sp,-16
     84e:	400147b7          	lui	a5,0x40014
     852:	c422                	sw	s0,8(sp)
     854:	c226                	sw	s1,4(sp)
     856:	c606                	sw	ra,12(sp)
     858:	80078793          	addi	a5,a5,-2048 # 40013800 <_eusrstack+0x2000e800>
     85c:	84ae                	mv	s1,a1
     85e:	842a                	mv	s0,a0
     860:	06f51263          	bne	a0,a5,8c4 <uart_init+0x7a>
     864:	40000613          	li	a2,1024
     868:	ca018593          	addi	a1,gp,-864 # 20000500 <uart1_rx_buf>
     86c:	c9018513          	addi	a0,gp,-880 # 200004f0 <uart1_rx_fifo_i>
     870:	134010ef          	jal	ra,19a4 <fifo_init>
     874:	200005b7          	lui	a1,0x20000
     878:	40000613          	li	a2,1024
     87c:	0f058593          	addi	a1,a1,240 # 200000f0 <uart1_tx_buf>
     880:	0a018513          	addi	a0,gp,160 # 20000900 <uart1_tx_fifo_i>
     884:	120010ef          	jal	ra,19a4 <fifo_init>
     888:	3b61                	jal	620 <rcc_compute_pclk2_freq>
     88a:	00151793          	slli	a5,a0,0x1
     88e:	0297d7b3          	divu	a5,a5,s1
     892:	40b2                	lw	ra,12(sp)
     894:	4492                	lw	s1,4(sp)
     896:	0785                	addi	a5,a5,1
     898:	8385                	srli	a5,a5,0x1
     89a:	07c2                	slli	a5,a5,0x10
     89c:	83c1                	srli	a5,a5,0x10
     89e:	00f41423          	sh	a5,8(s0)
     8a2:	00041a23          	sh	zero,20(s0)
     8a6:	00041823          	sh	zero,16(s0)
     8aa:	6789                	lui	a5,0x2
     8ac:	00041023          	sh	zero,0(s0)
     8b0:	06c78793          	addi	a5,a5,108 # 206c <handle_reset+0x4e>
     8b4:	00f41623          	sh	a5,12(s0)
     8b8:	4422                	lw	s0,8(sp)
     8ba:	0141                	addi	sp,sp,16
     8bc:	8082                	ret
     8be:	00051623          	sh	zero,12(a0)
     8c2:	8082                	ret
     8c4:	3b1d                	jal	5fa <rcc_compute_pclk1_freq>
     8c6:	b7d1                	j	88a <uart_init+0x40>

000008c8 <uart_bytes_available>:
     8c8:	00855503          	lhu	a0,8(a0)
     8cc:	8082                	ret

000008ce <uart_write_bytes>:
     8ce:	00c55783          	lhu	a5,12(a0)
     8d2:	7179                	addi	sp,sp,-48
     8d4:	d422                	sw	s0,40(sp)
     8d6:	07c2                	slli	a5,a5,0x10
     8d8:	83c1                	srli	a5,a5,0x10
     8da:	fbf7f793          	andi	a5,a5,-65
     8de:	07c2                	slli	a5,a5,0x10
     8e0:	d226                	sw	s1,36(sp)
     8e2:	ce4e                	sw	s3,28(sp)
     8e4:	83c1                	srli	a5,a5,0x10
     8e6:	d606                	sw	ra,44(sp)
     8e8:	d04a                	sw	s2,32(sp)
     8ea:	00f51623          	sh	a5,12(a0)
     8ee:	0085d783          	lhu	a5,8(a1)
     8f2:	842a                	mv	s0,a0
     8f4:	89ae                	mv	s3,a1
     8f6:	07c2                	slli	a5,a5,0x10
     8f8:	83c1                	srli	a5,a5,0x10
     8fa:	84b2                	mv	s1,a2
     8fc:	ef99                	bnez	a5,91a <uart_write_bytes+0x4c>
     8fe:	00055783          	lhu	a5,0(a0)
     902:	0807f793          	andi	a5,a5,128
     906:	cb91                	beqz	a5,91a <uart_write_bytes+0x4c>
     908:	00064783          	lbu	a5,0(a2)
     90c:	16fd                	addi	a3,a3,-1
     90e:	06c2                	slli	a3,a3,0x10
     910:	00f51223          	sh	a5,4(a0)
     914:	82c1                	srli	a3,a3,0x10
     916:	00160493          	addi	s1,a2,1
     91a:	00c45783          	lhu	a5,12(s0)
     91e:	0407e793          	ori	a5,a5,64
     922:	00f41623          	sh	a5,12(s0)
     926:	ea81                	bnez	a3,936 <uart_write_bytes+0x68>
     928:	50b2                	lw	ra,44(sp)
     92a:	5422                	lw	s0,40(sp)
     92c:	5492                	lw	s1,36(sp)
     92e:	5902                	lw	s2,32(sp)
     930:	49f2                	lw	s3,28(sp)
     932:	6145                	addi	sp,sp,48
     934:	8082                	ret
     936:	0009d783          	lhu	a5,0(s3)
     93a:	0089d703          	lhu	a4,8(s3)
     93e:	8f99                	sub	a5,a5,a4
     940:	07c2                	slli	a5,a5,0x10
     942:	83c1                	srli	a5,a5,0x10
     944:	d3ed                	beqz	a5,926 <uart_write_bytes+0x58>
     946:	8936                	mv	s2,a3
     948:	00d7f363          	bgeu	a5,a3,94e <uart_write_bytes+0x80>
     94c:	893e                	mv	s2,a5
     94e:	00c45783          	lhu	a5,12(s0)
     952:	0942                	slli	s2,s2,0x10
     954:	01095913          	srli	s2,s2,0x10
     958:	07c2                	slli	a5,a5,0x10
     95a:	83c1                	srli	a5,a5,0x10
     95c:	fbf7f793          	andi	a5,a5,-65
     960:	07c2                	slli	a5,a5,0x10
     962:	83c1                	srli	a5,a5,0x10
     964:	00f41623          	sh	a5,12(s0)
     968:	85a6                	mv	a1,s1
     96a:	864a                	mv	a2,s2
     96c:	854e                	mv	a0,s3
     96e:	c636                	sw	a3,12(sp)
     970:	0ae010ef          	jal	ra,1a1e <fifo_write>
     974:	46b2                	lw	a3,12(sp)
     976:	00c45783          	lhu	a5,12(s0)
     97a:	94ca                	add	s1,s1,s2
     97c:	412686b3          	sub	a3,a3,s2
     980:	0407e793          	ori	a5,a5,64
     984:	06c2                	slli	a3,a3,0x10
     986:	00f41623          	sh	a5,12(s0)
     98a:	82c1                	srli	a3,a3,0x10
     98c:	bf69                	j	926 <uart_write_bytes+0x58>

0000098e <USB_HP_CAN1_TX_IRQHandler>:
     98e:	400067b7          	lui	a5,0x40006
     992:	1141                	addi	sp,sp,-16
     994:	c426                	sw	s1,8(sp)
     996:	c447d483          	lhu	s1,-956(a5) # 40005c44 <_eusrstack+0x20000c44>
     99a:	c622                	sw	s0,12(sp)
     99c:	c4078713          	addi	a4,a5,-960
     9a0:	88bd                	andi	s1,s1,15
     9a2:	c0078793          	addi	a5,a5,-1024
     9a6:	00249413          	slli	s0,s1,0x2
     9aa:	943e                	add	s0,s0,a5
     9ac:	00045783          	lhu	a5,0(s0)
     9b0:	07c2                	slli	a5,a5,0x10
     9b2:	87c1                	srai	a5,a5,0x10
     9b4:	0007df63          	bgez	a5,9d2 <USB_HP_CAN1_TX_IRQHandler+0x44>
     9b8:	8601a783          	lw	a5,-1952(gp) # 200000c0 <usbd_out_callback>
     9bc:	c399                	beqz	a5,9c2 <USB_HP_CAN1_TX_IRQHandler+0x34>
     9be:	8526                	mv	a0,s1
     9c0:	9782                	jalr	a5
     9c2:	00045703          	lhu	a4,0(s0)
     9c6:	6785                	lui	a5,0x1
     9c8:	f8f78793          	addi	a5,a5,-113 # f8f <cdc_on_in+0x61>
     9cc:	8ff9                	and	a5,a5,a4
     9ce:	00f41023          	sh	a5,0(s0)
     9d2:	00045783          	lhu	a5,0(s0)
     9d6:	0807f793          	andi	a5,a5,128
     9da:	cf91                	beqz	a5,9f6 <USB_HP_CAN1_TX_IRQHandler+0x68>
     9dc:	85c1a783          	lw	a5,-1956(gp) # 200000bc <usbd_in_callback>
     9e0:	c399                	beqz	a5,9e6 <USB_HP_CAN1_TX_IRQHandler+0x58>
     9e2:	8526                	mv	a0,s1
     9e4:	9782                	jalr	a5
     9e6:	00045703          	lhu	a4,0(s0)
     9ea:	77e5                	lui	a5,0xffff9
     9ec:	f0f78793          	addi	a5,a5,-241 # ffff8f0f <_eusrstack+0xdfff3f0f>
     9f0:	8ff9                	and	a5,a5,a4
     9f2:	00f41023          	sh	a5,0(s0)
     9f6:	4432                	lw	s0,12(sp)
     9f8:	44a2                	lw	s1,8(sp)
     9fa:	0141                	addi	sp,sp,16
     9fc:	30200073          	mret

00000a00 <USB_LP_CAN1_RX0_IRQHandler>:
     a00:	1141                	addi	sp,sp,-16
     a02:	400067b7          	lui	a5,0x40006
     a06:	c447d683          	lhu	a3,-956(a5) # 40005c44 <_eusrstack+0x20000c44>
     a0a:	c426                	sw	s1,8(sp)
     a0c:	c407d483          	lhu	s1,-960(a5)
     a10:	c622                	sw	s0,12(sp)
     a12:	c24a                	sw	s2,4(sp)
     a14:	8cf5                	and	s1,s1,a3
     a16:	01049693          	slli	a3,s1,0x10
     a1a:	86c1                	srai	a3,a3,0x10
     a1c:	0606d663          	bgez	a3,a88 <USB_LP_CAN1_RX0_IRQHandler+0x88>
     a20:	c447d903          	lhu	s2,-956(a5)
     a24:	c0078793          	addi	a5,a5,-1024
     a28:	00f97913          	andi	s2,s2,15
     a2c:	00291413          	slli	s0,s2,0x2
     a30:	943e                	add	s0,s0,a5
     a32:	00045783          	lhu	a5,0(s0)
     a36:	07c2                	slli	a5,a5,0x10
     a38:	87c1                	srai	a5,a5,0x10
     a3a:	0207d563          	bgez	a5,a64 <USB_LP_CAN1_RX0_IRQHandler+0x64>
     a3e:	00045783          	lhu	a5,0(s0)
     a42:	01479713          	slli	a4,a5,0x14
     a46:	16075c63          	bgez	a4,bbe <USB_LP_CAN1_RX0_IRQHandler+0x1be>
     a4a:	8681a783          	lw	a5,-1944(gp) # 200000c8 <usbd_setup_callback>
     a4e:	c399                	beqz	a5,a54 <USB_LP_CAN1_RX0_IRQHandler+0x54>
     a50:	854a                	mv	a0,s2
     a52:	9782                	jalr	a5
     a54:	00045703          	lhu	a4,0(s0)
     a58:	6785                	lui	a5,0x1
     a5a:	f8f78793          	addi	a5,a5,-113 # f8f <cdc_on_in+0x61>
     a5e:	8ff9                	and	a5,a5,a4
     a60:	00f41023          	sh	a5,0(s0)
     a64:	00045783          	lhu	a5,0(s0)
     a68:	0807f793          	andi	a5,a5,128
     a6c:	cf91                	beqz	a5,a88 <USB_LP_CAN1_RX0_IRQHandler+0x88>
     a6e:	85c1a783          	lw	a5,-1956(gp) # 200000bc <usbd_in_callback>
     a72:	c399                	beqz	a5,a78 <USB_LP_CAN1_RX0_IRQHandler+0x78>
     a74:	854a                	mv	a0,s2
     a76:	9782                	jalr	a5
     a78:	00045703          	lhu	a4,0(s0)
     a7c:	77e5                	lui	a5,0xffff9
     a7e:	f0f78793          	addi	a5,a5,-241 # ffff8f0f <_eusrstack+0xdfff3f0f>
     a82:	8ff9                	and	a5,a5,a4
     a84:	00f41023          	sh	a5,0(s0)
     a88:	01449793          	slli	a5,s1,0x14
     a8c:	0207de63          	bgez	a5,ac8 <USB_LP_CAN1_RX0_IRQHandler+0xc8>
     a90:	40006737          	lui	a4,0x40006
     a94:	c4075783          	lhu	a5,-960(a4) # 40005c40 <_eusrstack+0x20000c40>
     a98:	0087e793          	ori	a5,a5,8
     a9c:	c4f71023          	sh	a5,-960(a4)
     aa0:	8701a783          	lw	a5,-1936(gp) # 200000d0 <usbd_suspend_callback>
     aa4:	c391                	beqz	a5,aa8 <USB_LP_CAN1_RX0_IRQHandler+0xa8>
     aa6:	9782                	jalr	a5
     aa8:	40006737          	lui	a4,0x40006
     aac:	c4475603          	lhu	a2,-956(a4) # 40005c44 <_eusrstack+0x20000c44>
     ab0:	77fd                	lui	a5,0xfffff
     ab2:	7ff78793          	addi	a5,a5,2047 # fffff7ff <_eusrstack+0xdfffa7ff>
     ab6:	8ff1                	and	a5,a5,a2
     ab8:	c4f71223          	sh	a5,-956(a4)
     abc:	c4075783          	lhu	a5,-960(a4)
     ac0:	0047e793          	ori	a5,a5,4
     ac4:	c4f71023          	sh	a5,-960(a4)
     ac8:	4004f793          	andi	a5,s1,1024
     acc:	cf9d                	beqz	a5,b0a <USB_LP_CAN1_RX0_IRQHandler+0x10a>
     ace:	400067b7          	lui	a5,0x40006
     ad2:	40006437          	lui	s0,0x40006
     ad6:	0b018713          	addi	a4,gp,176 # 20000910 <ep_config>
     ada:	c0078793          	addi	a5,a5,-1024 # 40005c00 <_eusrstack+0x20000c00>
     ade:	c2040693          	addi	a3,s0,-992 # 40005c20 <_eusrstack+0x20000c20>
     ae2:	00075603          	lhu	a2,0(a4)
     ae6:	0791                	addi	a5,a5,4
     ae8:	0709                	addi	a4,a4,2
     aea:	fec79e23          	sh	a2,-4(a5)
     aee:	fed79ae3          	bne	a5,a3,ae2 <USB_LP_CAN1_RX0_IRQHandler+0xe2>
     af2:	08000793          	li	a5,128
     af6:	c4040413          	addi	s0,s0,-960
     afa:	00f41623          	sh	a5,12(s0)
     afe:	8641a783          	lw	a5,-1948(gp) # 200000c4 <usbd_reset_callback>
     b02:	c391                	beqz	a5,b06 <USB_LP_CAN1_RX0_IRQHandler+0x106>
     b04:	9782                	jalr	a5
     b06:	00041223          	sh	zero,4(s0)
     b0a:	2004f793          	andi	a5,s1,512
     b0e:	cb85                	beqz	a5,b3e <USB_LP_CAN1_RX0_IRQHandler+0x13e>
     b10:	0c01d783          	lhu	a5,192(gp) # 20000920 <sof_count>
     b14:	0785                	addi	a5,a5,1
     b16:	07c2                	slli	a5,a5,0x10
     b18:	83c1                	srli	a5,a5,0x10
     b1a:	0cf19023          	sh	a5,192(gp) # 20000920 <sof_count>
     b1e:	86c1a783          	lw	a5,-1940(gp) # 200000cc <usbd_sof_callback>
     b22:	c391                	beqz	a5,b26 <USB_LP_CAN1_RX0_IRQHandler+0x126>
     b24:	9782                	jalr	a5
     b26:	40006737          	lui	a4,0x40006
     b2a:	c4475783          	lhu	a5,-956(a4) # 40005c44 <_eusrstack+0x20000c44>
     b2e:	07c2                	slli	a5,a5,0x10
     b30:	83c1                	srli	a5,a5,0x10
     b32:	dff7f793          	andi	a5,a5,-513
     b36:	07c2                	slli	a5,a5,0x10
     b38:	83c1                	srli	a5,a5,0x10
     b3a:	c4f71223          	sh	a5,-956(a4)
     b3e:	1004f793          	andi	a5,s1,256
     b42:	c38d                	beqz	a5,b64 <USB_LP_CAN1_RX0_IRQHandler+0x164>
     b44:	8581a783          	lw	a5,-1960(gp) # 200000b8 <usbd_esof_callback>
     b48:	c391                	beqz	a5,b4c <USB_LP_CAN1_RX0_IRQHandler+0x14c>
     b4a:	9782                	jalr	a5
     b4c:	40006737          	lui	a4,0x40006
     b50:	c4475783          	lhu	a5,-956(a4) # 40005c44 <_eusrstack+0x20000c44>
     b54:	07c2                	slli	a5,a5,0x10
     b56:	83c1                	srli	a5,a5,0x10
     b58:	eff7f793          	andi	a5,a5,-257
     b5c:	07c2                	slli	a5,a5,0x10
     b5e:	83c1                	srli	a5,a5,0x10
     b60:	c4f71223          	sh	a5,-956(a4)
     b64:	01349793          	slli	a5,s1,0x13
     b68:	0207da63          	bgez	a5,b9c <USB_LP_CAN1_RX0_IRQHandler+0x19c>
     b6c:	40006737          	lui	a4,0x40006
     b70:	c4075783          	lhu	a5,-960(a4) # 40005c40 <_eusrstack+0x20000c40>
     b74:	07c2                	slli	a5,a5,0x10
     b76:	83c1                	srli	a5,a5,0x10
     b78:	9bdd                	andi	a5,a5,-9
     b7a:	07c2                	slli	a5,a5,0x10
     b7c:	83c1                	srli	a5,a5,0x10
     b7e:	c4f71023          	sh	a5,-960(a4)
     b82:	8741a783          	lw	a5,-1932(gp) # 200000d4 <usbd_wakeup_callback>
     b86:	c391                	beqz	a5,b8a <USB_LP_CAN1_RX0_IRQHandler+0x18a>
     b88:	9782                	jalr	a5
     b8a:	40006737          	lui	a4,0x40006
     b8e:	c4475683          	lhu	a3,-956(a4) # 40005c44 <_eusrstack+0x20000c44>
     b92:	77fd                	lui	a5,0xfffff
     b94:	17fd                	addi	a5,a5,-1
     b96:	8ff5                	and	a5,a5,a3
     b98:	c4f71223          	sh	a5,-956(a4)
     b9c:	40006737          	lui	a4,0x40006
     ba0:	c4475683          	lhu	a3,-956(a4) # 40005c44 <_eusrstack+0x20000c44>
     ba4:	77e9                	lui	a5,0xffffa
     ba6:	4432                	lw	s0,12(sp)
     ba8:	17fd                	addi	a5,a5,-1
     baa:	8ff5                	and	a5,a5,a3
     bac:	c4f71223          	sh	a5,-956(a4)
     bb0:	44a2                	lw	s1,8(sp)
     bb2:	4912                	lw	s2,4(sp)
     bb4:	c4070713          	addi	a4,a4,-960
     bb8:	0141                	addi	sp,sp,16
     bba:	30200073          	mret
     bbe:	8601a783          	lw	a5,-1952(gp) # 200000c0 <usbd_out_callback>
     bc2:	b571                	j	a4e <USB_LP_CAN1_RX0_IRQHandler+0x4e>

00000bc4 <USBWakeUp_IRQHandler>:
     bc4:	40006737          	lui	a4,0x40006
     bc8:	c4075783          	lhu	a5,-960(a4) # 40005c40 <_eusrstack+0x20000c40>
     bcc:	07c2                	slli	a5,a5,0x10
     bce:	83c1                	srli	a5,a5,0x10
     bd0:	9bdd                	andi	a5,a5,-9
     bd2:	07c2                	slli	a5,a5,0x10
     bd4:	83c1                	srli	a5,a5,0x10
     bd6:	c4f71023          	sh	a5,-960(a4)
     bda:	8741a783          	lw	a5,-1932(gp) # 200000d4 <usbd_wakeup_callback>
     bde:	c391                	beqz	a5,be2 <USBWakeUp_IRQHandler+0x1e>
     be0:	9782                	jalr	a5
     be2:	40006737          	lui	a4,0x40006
     be6:	c4475683          	lhu	a3,-956(a4) # 40005c44 <_eusrstack+0x20000c44>
     bea:	77fd                	lui	a5,0xfffff
     bec:	17fd                	addi	a5,a5,-1
     bee:	8ff5                	and	a5,a5,a3
     bf0:	c4f71223          	sh	a5,-956(a4)
     bf4:	c4070713          	addi	a4,a4,-960
     bf8:	30200073          	mret

00000bfc <usbd_init>:
     bfc:	400067b7          	lui	a5,0x40006
     c00:	4685                	li	a3,1
     c02:	c4d79023          	sh	a3,-960(a5) # 40005c40 <_eusrstack+0x20000c40>
     c06:	c4079823          	sh	zero,-944(a5)
     c0a:	86aa                	mv	a3,a0
     c0c:	0b018593          	addi	a1,gp,176 # 20000910 <ep_config>
     c10:	4601                	li	a2,0
     c12:	04000793          	li	a5,64
     c16:	40006eb7          	lui	t4,0x40006
     c1a:	10000f13          	li	t5,256
     c1e:	03e00893          	li	a7,62
     c22:	7361                	lui	t1,0xffff8
     c24:	40000f93          	li	t6,1024
     c28:	4e21                	li	t3,8
     c2a:	0206d383          	lhu	t2,32(a3) # 40021020 <_eusrstack+0x2001c020>
     c2e:	01061813          	slli	a6,a2,0x10
     c32:	00461293          	slli	t0,a2,0x4
     c36:	01085813          	srli	a6,a6,0x10
     c3a:	92f6                	add	t0,t0,t4
     c3c:	0006d703          	lhu	a4,0(a3)
     c40:	01e38463          	beq	t2,t5,c48 <usbd_init+0x4c>
     c44:	0df39f63          	bne	t2,t6,d22 <usbd_init+0x126>
     c48:	e761                	bnez	a4,d10 <usbd_init+0x114>
     c4a:	0106d703          	lhu	a4,16(a3)
     c4e:	00270393          	addi	t2,a4,2
     c52:	03c2                	slli	t2,t2,0x10
     c54:	0103d393          	srli	t2,t2,0x10
     c58:	0a78e163          	bltu	a7,t2,cfa <usbd_init+0xfe>
     c5c:	070d                	addi	a4,a4,3
     c5e:	9b79                	andi	a4,a4,-2
     c60:	0742                	slli	a4,a4,0x10
     c62:	8341                	srli	a4,a4,0x10
     c64:	00971393          	slli	t2,a4,0x9
     c68:	03c2                	slli	t2,t2,0x10
     c6a:	0103d393          	srli	t2,t2,0x10
     c6e:	00729223          	sh	t2,4(t0) # 192 <memset+0x92>
     c72:	00729623          	sh	t2,12(t0)
     c76:	00f29023          	sh	a5,0(t0)
     c7a:	97ba                	add	a5,a5,a4
     c7c:	07c2                	slli	a5,a5,0x10
     c7e:	83c1                	srli	a5,a5,0x10
     c80:	00f29423          	sh	a5,8(t0)
     c84:	97ba                	add	a5,a5,a4
     c86:	0206d703          	lhu	a4,32(a3)
     c8a:	07c2                	slli	a5,a5,0x10
     c8c:	0605                	addi	a2,a2,1
     c8e:	00e86833          	or	a6,a6,a4
     c92:	01059023          	sh	a6,0(a1)
     c96:	83c1                	srli	a5,a5,0x10
     c98:	0689                	addi	a3,a3,2
     c9a:	0589                	addi	a1,a1,2
     c9c:	f9c617e3          	bne	a2,t3,c2a <usbd_init+0x2e>
     ca0:	40006737          	lui	a4,0x40006
     ca4:	08000793          	li	a5,128
     ca8:	c4f71623          	sh	a5,-948(a4) # 40005c4c <_eusrstack+0x20000c4c>
     cac:	400245b7          	lui	a1,0x40024
     cb0:	8005a783          	lw	a5,-2048(a1) # 40023800 <_eusrstack+0x2001e800>
     cb4:	9bf1                	andi	a5,a5,-4
     cb6:	0027e793          	ori	a5,a5,2
     cba:	80f5a023          	sw	a5,-2048(a1)
     cbe:	c4075783          	lhu	a5,-960(a4)
     cc2:	07c2                	slli	a5,a5,0x10
     cc4:	83c1                	srli	a5,a5,0x10
     cc6:	9bf9                	andi	a5,a5,-2
     cc8:	07c2                	slli	a5,a5,0x10
     cca:	83c1                	srli	a5,a5,0x10
     ccc:	c4f71023          	sh	a5,-960(a4)
     cd0:	c4071223          	sh	zero,-956(a4)
     cd4:	c4075783          	lhu	a5,-960(a4)
     cd8:	03055683          	lhu	a3,48(a0)
     cdc:	8fd5                	or	a5,a5,a3
     cde:	c4f71023          	sh	a5,-960(a4)
     ce2:	e000e7b7          	lui	a5,0xe000e
     ce6:	10c7a223          	sw	a2,260(a5) # e000e104 <_eusrstack+0xc0009104>
     cea:	4741                	li	a4,16
     cec:	10e7a223          	sw	a4,260(a5)
     cf0:	04000737          	lui	a4,0x4000
     cf4:	10e7a223          	sw	a4,260(a5)
     cf8:	8082                	ret
     cfa:	02170713          	addi	a4,a4,33 # 4000021 <_data_lma+0x3ffc9c9>
     cfe:	9b01                	andi	a4,a4,-32
     d00:	0742                	slli	a4,a4,0x10
     d02:	8341                	srli	a4,a4,0x10
     d04:	fe070393          	addi	t2,a4,-32
     d08:	0396                	slli	t2,t2,0x5
     d0a:	0063e3b3          	or	t2,t2,t1
     d0e:	bfa9                	j	c68 <usbd_init+0x6c>
     d10:	0705                	addi	a4,a4,1
     d12:	9b79                	andi	a4,a4,-2
     d14:	0742                	slli	a4,a4,0x10
     d16:	00029223          	sh	zero,4(t0)
     d1a:	8341                	srli	a4,a4,0x10
     d1c:	00029623          	sh	zero,12(t0)
     d20:	bf99                	j	c76 <usbd_init+0x7a>
     d22:	0705                	addi	a4,a4,1
     d24:	9b79                	andi	a4,a4,-2
     d26:	00f29023          	sh	a5,0(t0)
     d2a:	97ba                	add	a5,a5,a4
     d2c:	07c2                	slli	a5,a5,0x10
     d2e:	00029223          	sh	zero,4(t0)
     d32:	83c1                	srli	a5,a5,0x10
     d34:	00f29423          	sh	a5,8(t0)
     d38:	0106d703          	lhu	a4,16(a3)
     d3c:	00270393          	addi	t2,a4,2
     d40:	03c2                	slli	t2,t2,0x10
     d42:	0103d393          	srli	t2,t2,0x10
     d46:	0078ee63          	bltu	a7,t2,d62 <usbd_init+0x166>
     d4a:	070d                	addi	a4,a4,3
     d4c:	9b79                	andi	a4,a4,-2
     d4e:	0742                	slli	a4,a4,0x10
     d50:	8341                	srli	a4,a4,0x10
     d52:	00971393          	slli	t2,a4,0x9
     d56:	03c2                	slli	t2,t2,0x10
     d58:	0103d393          	srli	t2,t2,0x10
     d5c:	00729623          	sh	t2,12(t0)
     d60:	b715                	j	c84 <usbd_init+0x88>
     d62:	02170713          	addi	a4,a4,33
     d66:	9b01                	andi	a4,a4,-32
     d68:	0742                	slli	a4,a4,0x10
     d6a:	8341                	srli	a4,a4,0x10
     d6c:	fe070393          	addi	t2,a4,-32
     d70:	0396                	slli	t2,t2,0x5
     d72:	0063e3b3          	or	t2,t2,t1
     d76:	b7c5                	j	d56 <usbd_init+0x15a>

00000d78 <usbd_write_to_pma>:
     d78:	400067b7          	lui	a5,0x40006
     d7c:	0506                	slli	a0,a0,0x1
     d7e:	953e                	add	a0,a0,a5
     d80:	67c1                	lui	a5,0x10
     d82:	17fd                	addi	a5,a5,-1
     d84:	167d                	addi	a2,a2,-1
     d86:	0642                	slli	a2,a2,0x10
     d88:	8241                	srli	a2,a2,0x10
     d8a:	00f61363          	bne	a2,a5,d90 <usbd_write_to_pma+0x18>
     d8e:	8082                	ret
     d90:	0005d703          	lhu	a4,0(a1)
     d94:	0511                	addi	a0,a0,4
     d96:	0589                	addi	a1,a1,2
     d98:	fee51e23          	sh	a4,-4(a0)
     d9c:	b7e5                	j	d84 <usbd_write_to_pma+0xc>

00000d9e <usbd_read_from_pma>:
     d9e:	400067b7          	lui	a5,0x40006
     da2:	0506                	slli	a0,a0,0x1
     da4:	953e                	add	a0,a0,a5
     da6:	67c1                	lui	a5,0x10
     da8:	17fd                	addi	a5,a5,-1
     daa:	167d                	addi	a2,a2,-1
     dac:	0642                	slli	a2,a2,0x10
     dae:	8241                	srli	a2,a2,0x10
     db0:	00f61363          	bne	a2,a5,db6 <usbd_read_from_pma+0x18>
     db4:	8082                	ret
     db6:	00055703          	lhu	a4,0(a0)
     dba:	0589                	addi	a1,a1,2
     dbc:	0511                	addi	a0,a0,4
     dbe:	fee59f23          	sh	a4,-2(a1)
     dc2:	b7e5                	j	daa <usbd_read_from_pma+0xc>

00000dc4 <cdc_on_sof>:
     dc4:	0e01d683          	lhu	a3,224(gp) # 20000940 <cdc_last_data_time>
     dc8:	0c01d783          	lhu	a5,192(gp) # 20000920 <sof_count>
     dcc:	8f95                	sub	a5,a5,a3
     dce:	07c2                	slli	a5,a5,0x10
     dd0:	83c1                	srli	a5,a5,0x10
     dd2:	46e1                	li	a3,24
     dd4:	08f6f663          	bgeu	a3,a5,e60 <cdc_on_sof+0x9c>
     dd8:	400067b7          	lui	a5,0x40006
     ddc:	c0c7d683          	lhu	a3,-1012(a5) # 40005c0c <_eusrstack+0x20000c0c>
     de0:	01169613          	slli	a2,a3,0x11
     de4:	00065763          	bgez	a2,df2 <cdc_on_sof+0x2e>
     de8:	c0c7d783          	lhu	a5,-1012(a5)
     dec:	0407f793          	andi	a5,a5,64
     df0:	ef91                	bnez	a5,e0c <cdc_on_sof+0x48>
     df2:	400067b7          	lui	a5,0x40006
     df6:	c0c7d683          	lhu	a3,-1012(a5) # 40005c0c <_eusrstack+0x20000c0c>
     dfa:	01169613          	slli	a2,a3,0x11
     dfe:	06064163          	bltz	a2,e60 <cdc_on_sof+0x9c>
     e02:	c0c7d783          	lhu	a5,-1012(a5)
     e06:	0407f793          	andi	a5,a5,64
     e0a:	ebb9                	bnez	a5,e60 <cdc_on_sof+0x9c>
     e0c:	0c71c783          	lbu	a5,199(gp) # 20000927 <ep3_wip>
     e10:	0ff7f793          	andi	a5,a5,255
     e14:	e7b1                	bnez	a5,e60 <cdc_on_sof+0x9c>
     e16:	0cd1c683          	lbu	a3,205(gp) # 2000092d <ep3_write_select>
     e1a:	0ff6f693          	andi	a3,a3,255
     e1e:	cabd                	beqz	a3,e94 <cdc_on_sof+0xd0>
     e20:	0de1c603          	lbu	a2,222(gp) # 2000093e <ep3_t1_num_bytes>
     e24:	400066b7          	lui	a3,0x40006
     e28:	02c69e23          	sh	a2,60(a3) # 4000603c <_eusrstack+0x2000103c>
     e2c:	04000613          	li	a2,64
     e30:	0cc18f23          	sb	a2,222(gp) # 2000093e <ep3_t1_num_bytes>
     e34:	0c0186a3          	sb	zero,205(gp) # 2000092d <ep3_write_select>
     e38:	c0c6d603          	lhu	a2,-1012(a3)
     e3c:	77f5                	lui	a5,0xffffd
     e3e:	f8f78793          	addi	a5,a5,-113 # ffffcf8f <_eusrstack+0xdfff7f8f>
     e42:	8ff1                	and	a5,a5,a2
     e44:	c0f69623          	sh	a5,-1012(a3)
     e48:	400066b7          	lui	a3,0x40006
     e4c:	c0c6d603          	lhu	a2,-1012(a3) # 40005c0c <_eusrstack+0x20000c0c>
     e50:	77e5                	lui	a5,0xffff9
     e52:	fbf78793          	addi	a5,a5,-65 # ffff8fbf <_eusrstack+0xdfff3fbf>
     e56:	8ff1                	and	a5,a5,a2
     e58:	0307c793          	xori	a5,a5,48
     e5c:	c0f69623          	sh	a5,-1012(a3)
     e60:	0c01d783          	lhu	a5,192(gp) # 20000920 <sof_count>
     e64:	0ca1d703          	lhu	a4,202(gp) # 2000092a <cdc_last_status_time>
     e68:	8f99                	sub	a5,a5,a4
     e6a:	07c2                	slli	a5,a5,0x10
     e6c:	83c1                	srli	a5,a5,0x10
     e6e:	4761                	li	a4,24
     e70:	02f77163          	bgeu	a4,a5,e92 <cdc_on_sof+0xce>
     e74:	40006737          	lui	a4,0x40006
     e78:	46a9                	li	a3,10
     e7a:	00d71a23          	sh	a3,20(a4) # 40006014 <_eusrstack+0x20001014>
     e7e:	c0475683          	lhu	a3,-1020(a4)
     e82:	77e5                	lui	a5,0xffff9
     e84:	fbf78793          	addi	a5,a5,-65 # ffff8fbf <_eusrstack+0xdfff3fbf>
     e88:	8ff5                	and	a5,a5,a3
     e8a:	0307c793          	xori	a5,a5,48
     e8e:	c0f71223          	sh	a5,-1020(a4)
     e92:	8082                	ret
     e94:	0c41c603          	lbu	a2,196(gp) # 20000924 <ep3_t0_num_bytes>
     e98:	400066b7          	lui	a3,0x40006
     e9c:	02c69a23          	sh	a2,52(a3) # 40006034 <_eusrstack+0x20001034>
     ea0:	04000613          	li	a2,64
     ea4:	0cc18223          	sb	a2,196(gp) # 20000924 <ep3_t0_num_bytes>
     ea8:	4605                	li	a2,1
     eaa:	0cc186a3          	sb	a2,205(gp) # 2000092d <ep3_write_select>
     eae:	c0c6d603          	lhu	a2,-1012(a3)
     eb2:	77f5                	lui	a5,0xffffd
     eb4:	f8f78793          	addi	a5,a5,-113 # ffffcf8f <_eusrstack+0xdfff7f8f>
     eb8:	8ff1                	and	a5,a5,a2
     eba:	6611                	lui	a2,0x4
     ebc:	8fb1                	xor	a5,a5,a2
     ebe:	b759                	j	e44 <cdc_on_sof+0x80>

00000ec0 <cdc_on_rst>:
     ec0:	0c018a23          	sb	zero,212(gp) # 20000934 <ep2_read_select>
     ec4:	0c0184a3          	sb	zero,201(gp) # 20000929 <ep2_t0_num_bytes>
     ec8:	0c018323          	sb	zero,198(gp) # 20000926 <ep2_t0_read_offset>
     ecc:	0c0182a3          	sb	zero,197(gp) # 20000925 <ep2_t1_num_bytes>
     ed0:	0c018423          	sb	zero,200(gp) # 20000928 <ep2_t1_read_offset>
     ed4:	0c0183a3          	sb	zero,199(gp) # 20000927 <ep3_wip>
     ed8:	0c0186a3          	sb	zero,205(gp) # 2000092d <ep3_write_select>
     edc:	0c018223          	sb	zero,196(gp) # 20000924 <ep3_t0_num_bytes>
     ee0:	0c018f23          	sb	zero,222(gp) # 2000093e <ep3_t1_num_bytes>
     ee4:	400067b7          	lui	a5,0x40006
     ee8:	c007d603          	lhu	a2,-1024(a5) # 40005c00 <_eusrstack+0x20000c00>
     eec:	670d                	lui	a4,0x3
     eee:	02070693          	addi	a3,a4,32 # 3020 <_printf_i+0x18a>
     ef2:	8e35                	xor	a2,a2,a3
     ef4:	c0c79023          	sh	a2,-1024(a5)
     ef8:	c047d603          	lhu	a2,-1020(a5)
     efc:	04070713          	addi	a4,a4,64
     f00:	8eb1                	xor	a3,a3,a2
     f02:	c0d79223          	sh	a3,-1020(a5)
     f06:	c087d683          	lhu	a3,-1016(a5)
     f0a:	8f35                	xor	a4,a4,a3
     f0c:	c0e79423          	sh	a4,-1016(a5)
     f10:	c0c7d703          	lhu	a4,-1012(a5)
     f14:	02074713          	xori	a4,a4,32
     f18:	c0e79623          	sh	a4,-1012(a5)
     f1c:	0e019023          	sh	zero,224(gp) # 20000940 <cdc_last_data_time>
     f20:	0c019523          	sh	zero,202(gp) # 2000092a <cdc_last_status_time>
     f24:	0c018623          	sb	zero,204(gp) # 2000092c <cdc_config>
     f28:	0c019023          	sh	zero,192(gp) # 20000920 <sof_count>
     f2c:	8082                	ret

00000f2e <cdc_on_in>:
     f2e:	ed5d                	bnez	a0,fec <cdc_on_in+0xbe>
     f30:	1101                	addi	sp,sp,-32
     f32:	cc22                	sw	s0,24(sp)
     f34:	0d61c783          	lbu	a5,214(gp) # 20000936 <cdc_setup_buf>
     f38:	ce06                	sw	ra,28(sp)
     f3a:	ca26                	sw	s1,20(sp)
     f3c:	c84a                	sw	s2,16(sp)
     f3e:	c64e                	sw	s3,12(sp)
     f40:	c452                	sw	s4,8(sp)
     f42:	0607f793          	andi	a5,a5,96
     f46:	efd1                	bnez	a5,fe2 <cdc_on_in+0xb4>
     f48:	0d618793          	addi	a5,gp,214 # 20000936 <cdc_setup_buf>
     f4c:	0017c783          	lbu	a5,1(a5)
     f50:	4715                	li	a4,5
     f52:	0d618413          	addi	s0,gp,214 # 20000936 <cdc_setup_buf>
     f56:	06e78863          	beq	a5,a4,fc6 <cdc_on_in+0x98>
     f5a:	4719                	li	a4,6
     f5c:	08e79363          	bne	a5,a4,fe2 <cdc_on_in+0xb4>
     f60:	00645903          	lhu	s2,6(s0)
     f64:	47a1                	li	a5,8
     f66:	0127f363          	bgeu	a5,s2,f6c <cdc_on_in+0x3e>
     f6a:	4921                	li	s2,8
     f6c:	400064b7          	lui	s1,0x40006
     f70:	01091993          	slli	s3,s2,0x10
     f74:	0109d993          	srli	s3,s3,0x10
     f78:	0004d503          	lhu	a0,0(s1) # 40006000 <_eusrstack+0x20001000>
     f7c:	0d01a583          	lw	a1,208(gp) # 20000930 <descriptor_ptr>
     f80:	00198613          	addi	a2,s3,1
     f84:	8205                	srli	a2,a2,0x1
     f86:	3bcd                	jal	d78 <usbd_write_to_pma>
     f88:	0d01a783          	lw	a5,208(gp) # 20000930 <descriptor_ptr>
     f8c:	97ce                	add	a5,a5,s3
     f8e:	0cf1a823          	sw	a5,208(gp) # 20000930 <descriptor_ptr>
     f92:	00645783          	lhu	a5,6(s0)
     f96:	413787b3          	sub	a5,a5,s3
     f9a:	00f41323          	sh	a5,6(s0)
     f9e:	01249223          	sh	s2,4(s1)
     fa2:	c004d703          	lhu	a4,-1024(s1)
     fa6:	77e5                	lui	a5,0xffff9
     fa8:	fbf78793          	addi	a5,a5,-65 # ffff8fbf <_eusrstack+0xdfff3fbf>
     fac:	8ff9                	and	a5,a5,a4
     fae:	0307c793          	xori	a5,a5,48
     fb2:	c0f49023          	sh	a5,-1024(s1)
     fb6:	40f2                	lw	ra,28(sp)
     fb8:	4462                	lw	s0,24(sp)
     fba:	44d2                	lw	s1,20(sp)
     fbc:	4942                	lw	s2,16(sp)
     fbe:	49b2                	lw	s3,12(sp)
     fc0:	4a22                	lw	s4,8(sp)
     fc2:	6105                	addi	sp,sp,32
     fc4:	8082                	ret
     fc6:	40006737          	lui	a4,0x40006
     fca:	c4c75783          	lhu	a5,-948(a4) # 40005c4c <_eusrstack+0x20000c4c>
     fce:	0d51c683          	lbu	a3,213(gp) # 20000935 <cdc_address>
     fd2:	07c2                	slli	a5,a5,0x10
     fd4:	83c1                	srli	a5,a5,0x10
     fd6:	f807f793          	andi	a5,a5,-128
     fda:	8fd5                	or	a5,a5,a3
     fdc:	c4f71623          	sh	a5,-948(a4)
     fe0:	bfd9                	j	fb6 <cdc_on_in+0x88>
     fe2:	400067b7          	lui	a5,0x40006
     fe6:	00079223          	sh	zero,4(a5) # 40006004 <_eusrstack+0x20001004>
     fea:	b7f1                	j	fb6 <cdc_on_in+0x88>
     fec:	4785                	li	a5,1
     fee:	00f51b63          	bne	a0,a5,1004 <cdc_on_in+0xd6>
     ff2:	400067b7          	lui	a5,0x40006
     ff6:	00079a23          	sh	zero,20(a5) # 40006014 <_eusrstack+0x20001014>
     ffa:	0c01d703          	lhu	a4,192(gp) # 20000920 <sof_count>
     ffe:	0ce19523          	sh	a4,202(gp) # 2000092a <cdc_last_status_time>
    1002:	8082                	ret
    1004:	478d                	li	a5,3
    1006:	04f51b63          	bne	a0,a5,105c <cdc_on_in+0x12e>
    100a:	400067b7          	lui	a5,0x40006
    100e:	c0c7d703          	lhu	a4,-1012(a5) # 40005c0c <_eusrstack+0x20000c0c>
    1012:	03078793          	addi	a5,a5,48
    1016:	04077713          	andi	a4,a4,64
    101a:	cf05                	beqz	a4,1052 <cdc_on_in+0x124>
    101c:	0c018223          	sb	zero,196(gp) # 20000924 <ep3_t0_num_bytes>
    1020:	00079223          	sh	zero,4(a5)
    1024:	400066b7          	lui	a3,0x40006
    1028:	c0c6d703          	lhu	a4,-1012(a3) # 40005c0c <_eusrstack+0x20000c0c>
    102c:	77f5                	lui	a5,0xffffd
    102e:	f8f78793          	addi	a5,a5,-113 # ffffcf8f <_eusrstack+0xdfff7f8f>
    1032:	8ff9                	and	a5,a5,a4
    1034:	0cd1c703          	lbu	a4,205(gp) # 2000092d <ep3_write_select>
    1038:	0ff77713          	andi	a4,a4,255
    103c:	00e03733          	snez	a4,a4
    1040:	073a                	slli	a4,a4,0xe
    1042:	8fb9                	xor	a5,a5,a4
    1044:	c0f69623          	sh	a5,-1012(a3)
    1048:	0c01d703          	lhu	a4,192(gp) # 20000920 <sof_count>
    104c:	0ee19023          	sh	a4,224(gp) # 20000940 <cdc_last_data_time>
    1050:	8082                	ret
    1052:	0c018f23          	sb	zero,222(gp) # 2000093e <ep3_t1_num_bytes>
    1056:	00079623          	sh	zero,12(a5)
    105a:	b7e9                	j	1024 <cdc_on_in+0xf6>
    105c:	8082                	ret

0000105e <cdc_on_out>:
    105e:	e931                	bnez	a0,10b2 <cdc_on_out+0x54>
    1060:	0d618713          	addi	a4,gp,214 # 20000936 <cdc_setup_buf>
    1064:	00174703          	lbu	a4,1(a4)
    1068:	02000693          	li	a3,32
    106c:	08d71e63          	bne	a4,a3,1108 <cdc_on_out+0xaa>
    1070:	0d61c783          	lbu	a5,214(gp) # 20000936 <cdc_setup_buf>
    1074:	0607f793          	andi	a5,a5,96
    1078:	08e79863          	bne	a5,a4,1108 <cdc_on_out+0xaa>
    107c:	400067b7          	lui	a5,0x40006
    1080:	0087d503          	lhu	a0,8(a5) # 40006008 <_eusrstack+0x20001008>
    1084:	200005b7          	lui	a1,0x20000
    1088:	1141                	addi	sp,sp,-16
    108a:	4611                	li	a2,4
    108c:	06058593          	addi	a1,a1,96 # 20000060 <cdc_line_coding>
    1090:	c606                	sw	ra,12(sp)
    1092:	3331                	jal	d9e <usbd_read_from_pma>
    1094:	40006737          	lui	a4,0x40006
    1098:	00071223          	sh	zero,4(a4) # 40006004 <_eusrstack+0x20001004>
    109c:	c0075683          	lhu	a3,-1024(a4)
    10a0:	679d                	lui	a5,0x7
    10a2:	40b2                	lw	ra,12(sp)
    10a4:	07078793          	addi	a5,a5,112 # 7070 <_data_lma+0x3a18>
    10a8:	8fb5                	xor	a5,a5,a3
    10aa:	c0f71023          	sh	a5,-1024(a4)
    10ae:	0141                	addi	sp,sp,16
    10b0:	8082                	ret
    10b2:	4789                	li	a5,2
    10b4:	06f51663          	bne	a0,a5,1120 <cdc_on_out+0xc2>
    10b8:	400067b7          	lui	a5,0x40006
    10bc:	c087d703          	lhu	a4,-1016(a5) # 40005c08 <_eusrstack+0x20000c08>
    10c0:	02078793          	addi	a5,a5,32
    10c4:	01171693          	slli	a3,a4,0x11
    10c8:	0206d963          	bgez	a3,10fa <cdc_on_out+0x9c>
    10cc:	0047d783          	lhu	a5,4(a5)
    10d0:	0ff7f793          	andi	a5,a5,255
    10d4:	0cf184a3          	sb	a5,201(gp) # 20000929 <ep2_t0_num_bytes>
    10d8:	400066b7          	lui	a3,0x40006
    10dc:	c086d703          	lhu	a4,-1016(a3) # 40005c08 <_eusrstack+0x20000c08>
    10e0:	77e5                	lui	a5,0xffff9
    10e2:	fcf78793          	addi	a5,a5,-49 # ffff8fcf <_eusrstack+0xdfff3fcf>
    10e6:	8ff9                	and	a5,a5,a4
    10e8:	0d41c703          	lbu	a4,212(gp) # 20000934 <ep2_read_select>
    10ec:	00e03733          	snez	a4,a4
    10f0:	071a                	slli	a4,a4,0x6
    10f2:	8fb9                	xor	a5,a5,a4
    10f4:	c0f69423          	sh	a5,-1016(a3)
    10f8:	8082                	ret
    10fa:	00c7d783          	lhu	a5,12(a5)
    10fe:	0ff7f793          	andi	a5,a5,255
    1102:	0cf182a3          	sb	a5,197(gp) # 20000925 <ep2_t1_num_bytes>
    1106:	bfc9                	j	10d8 <cdc_on_out+0x7a>
    1108:	40006737          	lui	a4,0x40006
    110c:	00071223          	sh	zero,4(a4) # 40006004 <_eusrstack+0x20001004>
    1110:	c0075683          	lhu	a3,-1024(a4)
    1114:	679d                	lui	a5,0x7
    1116:	07078793          	addi	a5,a5,112 # 7070 <_data_lma+0x3a18>
    111a:	8fb5                	xor	a5,a5,a3
    111c:	c0f71023          	sh	a5,-1024(a4)
    1120:	8082                	ret

00001122 <cdc_on_setup>:
    1122:	30051f63          	bnez	a0,1440 <cdc_on_setup+0x31e>
    1126:	1101                	addi	sp,sp,-32
    1128:	c64e                	sw	s3,12(sp)
    112a:	400069b7          	lui	s3,0x40006
    112e:	c84a                	sw	s2,16(sp)
    1130:	892a                	mv	s2,a0
    1132:	0089d503          	lhu	a0,8(s3) # 40006008 <_eusrstack+0x20001008>
    1136:	cc22                	sw	s0,24(sp)
    1138:	0d618593          	addi	a1,gp,214 # 20000936 <cdc_setup_buf>
    113c:	4611                	li	a2,4
    113e:	ca26                	sw	s1,20(sp)
    1140:	ce06                	sw	ra,28(sp)
    1142:	39b1                	jal	d9e <usbd_read_from_pma>
    1144:	0d61c783          	lbu	a5,214(gp) # 20000936 <cdc_setup_buf>
    1148:	0c01a823          	sw	zero,208(gp) # 20000930 <descriptor_ptr>
    114c:	0607f713          	andi	a4,a5,96
    1150:	0d618413          	addi	s0,gp,214 # 20000936 <cdc_setup_buf>
    1154:	2a071563          	bnez	a4,13fe <cdc_on_setup+0x2dc>
    1158:	00144703          	lbu	a4,1(s0)
    115c:	46ad                	li	a3,11
    115e:	22e6e663          	bltu	a3,a4,138a <cdc_on_setup+0x268>
    1162:	668d                	lui	a3,0x3
    1164:	070a                	slli	a4,a4,0x2
    1166:	37c68693          	addi	a3,a3,892 # 337c <_read+0xc>
    116a:	9736                	add	a4,a4,a3
    116c:	4318                	lw	a4,0(a4)
    116e:	8702                	jr	a4
    1170:	400067b7          	lui	a5,0x40006
    1174:	0007d703          	lhu	a4,0(a5) # 40006000 <_eusrstack+0x20001000>
    1178:	4909                	li	s2,2
    117a:	0706                	slli	a4,a4,0x1
    117c:	97ba                	add	a5,a5,a4
    117e:	00079023          	sh	zero,0(a5)
    1182:	00645783          	lhu	a5,6(s0)
    1186:	0942                	slli	s2,s2,0x10
    1188:	01095913          	srli	s2,s2,0x10
    118c:	00f97463          	bgeu	s2,a5,1194 <cdc_on_setup+0x72>
    1190:	01241323          	sh	s2,6(s0)
    1194:	00645903          	lhu	s2,6(s0)
    1198:	47a1                	li	a5,8
    119a:	0127f363          	bgeu	a5,s2,11a0 <cdc_on_setup+0x7e>
    119e:	4921                	li	s2,8
    11a0:	0d01a583          	lw	a1,208(gp) # 20000930 <descriptor_ptr>
    11a4:	0942                	slli	s2,s2,0x10
    11a6:	01095913          	srli	s2,s2,0x10
    11aa:	cd91                	beqz	a1,11c6 <cdc_on_setup+0xa4>
    11ac:	400067b7          	lui	a5,0x40006
    11b0:	0007d503          	lhu	a0,0(a5) # 40006000 <_eusrstack+0x20001000>
    11b4:	00190613          	addi	a2,s2,1
    11b8:	8205                	srli	a2,a2,0x1
    11ba:	3e7d                	jal	d78 <usbd_write_to_pma>
    11bc:	0d01a783          	lw	a5,208(gp) # 20000930 <descriptor_ptr>
    11c0:	97ca                	add	a5,a5,s2
    11c2:	0cf1a823          	sw	a5,208(gp) # 20000930 <descriptor_ptr>
    11c6:	00645783          	lhu	a5,6(s0)
    11ca:	40006737          	lui	a4,0x40006
    11ce:	412787b3          	sub	a5,a5,s2
    11d2:	00f41323          	sh	a5,6(s0)
    11d6:	01271223          	sh	s2,4(a4) # 40006004 <_eusrstack+0x20001004>
    11da:	679d                	lui	a5,0x7
    11dc:	c0075683          	lhu	a3,-1024(a4)
    11e0:	07078793          	addi	a5,a5,112 # 7070 <_data_lma+0x3a18>
    11e4:	aa6d                	j	139e <cdc_on_setup+0x27c>
    11e6:	8bfd                	andi	a5,a5,31
    11e8:	4709                	li	a4,2
    11ea:	1ae79063          	bne	a5,a4,138a <cdc_on_setup+0x268>
    11ee:	00444703          	lbu	a4,4(s0)
    11f2:	08100693          	li	a3,129
    11f6:	02d70d63          	beq	a4,a3,1230 <cdc_on_setup+0x10e>
    11fa:	08300693          	li	a3,131
    11fe:	04d70d63          	beq	a4,a3,1258 <cdc_on_setup+0x136>
    1202:	18f71463          	bne	a4,a5,138a <cdc_on_setup+0x268>
    1206:	40006737          	lui	a4,0x40006
    120a:	c0875683          	lhu	a3,-1016(a4) # 40005c08 <_eusrstack+0x20000c08>
    120e:	77f5                	lui	a5,0xffffd
    1210:	f8f78793          	addi	a5,a5,-113 # ffffcf8f <_eusrstack+0xdfff7f8f>
    1214:	8ff5                	and	a5,a5,a3
    1216:	c0f71423          	sh	a5,-1016(a4)
    121a:	c0875683          	lhu	a3,-1016(a4)
    121e:	77f1                	lui	a5,0xffffc
    1220:	f8f78793          	addi	a5,a5,-113 # ffffbf8f <_eusrstack+0xdfff6f8f>
    1224:	8ff5                	and	a5,a5,a3
    1226:	668d                	lui	a3,0x3
    1228:	8fb5                	xor	a5,a5,a3
    122a:	c0f71423          	sh	a5,-1016(a4)
    122e:	bf91                	j	1182 <cdc_on_setup+0x60>
    1230:	40006737          	lui	a4,0x40006
    1234:	c0475603          	lhu	a2,-1020(a4) # 40005c04 <_eusrstack+0x20000c04>
    1238:	77e5                	lui	a5,0xffff9
    123a:	fcf78693          	addi	a3,a5,-49 # ffff8fcf <_eusrstack+0xdfff3fcf>
    123e:	8ef1                	and	a3,a3,a2
    1240:	c0d71223          	sh	a3,-1020(a4)
    1244:	c0475683          	lhu	a3,-1020(a4)
    1248:	fbf78793          	addi	a5,a5,-65
    124c:	8ff5                	and	a5,a5,a3
    124e:	0207c793          	xori	a5,a5,32
    1252:	c0f71223          	sh	a5,-1020(a4)
    1256:	b735                	j	1182 <cdc_on_setup+0x60>
    1258:	40006737          	lui	a4,0x40006
    125c:	c0c75603          	lhu	a2,-1012(a4) # 40005c0c <_eusrstack+0x20000c0c>
    1260:	77e5                	lui	a5,0xffff9
    1262:	fcf78693          	addi	a3,a5,-49 # ffff8fcf <_eusrstack+0xdfff3fcf>
    1266:	8ef1                	and	a3,a3,a2
    1268:	c0d71623          	sh	a3,-1012(a4)
    126c:	c0c75683          	lhu	a3,-1012(a4)
    1270:	fbf78793          	addi	a5,a5,-65
    1274:	8ff5                	and	a5,a5,a3
    1276:	0207c793          	xori	a5,a5,32
    127a:	c0f71623          	sh	a5,-1012(a4)
    127e:	b711                	j	1182 <cdc_on_setup+0x60>
    1280:	8bfd                	andi	a5,a5,31
    1282:	4709                	li	a4,2
    1284:	10e79363          	bne	a5,a4,138a <cdc_on_setup+0x268>
    1288:	00445703          	lhu	a4,4(s0)
    128c:	f0077693          	andi	a3,a4,-256
    1290:	0e069d63          	bnez	a3,138a <cdc_on_setup+0x268>
    1294:	0ff77713          	andi	a4,a4,255
    1298:	08100693          	li	a3,129
    129c:	02d70a63          	beq	a4,a3,12d0 <cdc_on_setup+0x1ae>
    12a0:	08300693          	li	a3,131
    12a4:	04d70863          	beq	a4,a3,12f4 <cdc_on_setup+0x1d2>
    12a8:	0ef71163          	bne	a4,a5,138a <cdc_on_setup+0x268>
    12ac:	40006737          	lui	a4,0x40006
    12b0:	c0875683          	lhu	a3,-1016(a4) # 40005c08 <_eusrstack+0x20000c08>
    12b4:	77f5                	lui	a5,0xffffd
    12b6:	f8f78793          	addi	a5,a5,-113 # ffffcf8f <_eusrstack+0xdfff7f8f>
    12ba:	8ff5                	and	a5,a5,a3
    12bc:	c0f71423          	sh	a5,-1016(a4)
    12c0:	c0875683          	lhu	a3,-1016(a4)
    12c4:	77f1                	lui	a5,0xffffc
    12c6:	f8f78793          	addi	a5,a5,-113 # ffffbf8f <_eusrstack+0xdfff6f8f>
    12ca:	8ff5                	and	a5,a5,a3
    12cc:	6685                	lui	a3,0x1
    12ce:	bfa9                	j	1228 <cdc_on_setup+0x106>
    12d0:	40006737          	lui	a4,0x40006
    12d4:	c0475603          	lhu	a2,-1020(a4) # 40005c04 <_eusrstack+0x20000c04>
    12d8:	77e5                	lui	a5,0xffff9
    12da:	fcf78693          	addi	a3,a5,-49 # ffff8fcf <_eusrstack+0xdfff3fcf>
    12de:	8ef1                	and	a3,a3,a2
    12e0:	c0d71223          	sh	a3,-1020(a4)
    12e4:	c0475683          	lhu	a3,-1020(a4)
    12e8:	fbf78793          	addi	a5,a5,-65
    12ec:	8ff5                	and	a5,a5,a3
    12ee:	0107c793          	xori	a5,a5,16
    12f2:	b785                	j	1252 <cdc_on_setup+0x130>
    12f4:	40006737          	lui	a4,0x40006
    12f8:	c0c75603          	lhu	a2,-1012(a4) # 40005c0c <_eusrstack+0x20000c0c>
    12fc:	77e5                	lui	a5,0xffff9
    12fe:	fcf78693          	addi	a3,a5,-49 # ffff8fcf <_eusrstack+0xdfff3fcf>
    1302:	8ef1                	and	a3,a3,a2
    1304:	c0d71623          	sh	a3,-1012(a4)
    1308:	c0c75683          	lhu	a3,-1012(a4)
    130c:	fbf78793          	addi	a5,a5,-65
    1310:	8ff5                	and	a5,a5,a3
    1312:	0107c793          	xori	a5,a5,16
    1316:	b795                	j	127a <cdc_on_setup+0x158>
    1318:	00245703          	lhu	a4,2(s0)
    131c:	0ce18aa3          	sb	a4,213(gp) # 20000935 <cdc_address>
    1320:	b58d                	j	1182 <cdc_on_setup+0x60>
    1322:	00245783          	lhu	a5,2(s0)
    1326:	4689                	li	a3,2
    1328:	0087d713          	srli	a4,a5,0x8
    132c:	00d70f63          	beq	a4,a3,134a <cdc_on_setup+0x228>
    1330:	468d                	li	a3,3
    1332:	02d70463          	beq	a4,a3,135a <cdc_on_setup+0x238>
    1336:	4785                	li	a5,1
    1338:	04f71963          	bne	a4,a5,138a <cdc_on_setup+0x268>
    133c:	678d                	lui	a5,0x3
    133e:	40478793          	addi	a5,a5,1028 # 3404 <cdc_device_descriptor>
    1342:	0cf1a823          	sw	a5,208(gp) # 20000930 <descriptor_ptr>
    1346:	4949                	li	s2,18
    1348:	bd2d                	j	1182 <cdc_on_setup+0x60>
    134a:	678d                	lui	a5,0x3
    134c:	3c078793          	addi	a5,a5,960 # 33c0 <cdc_config_descriptor>
    1350:	0cf1a823          	sw	a5,208(gp) # 20000930 <descriptor_ptr>
    1354:	04300913          	li	s2,67
    1358:	b52d                	j	1182 <cdc_on_setup+0x60>
    135a:	0ff7f793          	andi	a5,a5,255
    135e:	4711                	li	a4,4
    1360:	06f76163          	bltu	a4,a5,13c2 <cdc_on_setup+0x2a0>
    1364:	670d                	lui	a4,0x3
    1366:	078a                	slli	a5,a5,0x2
    1368:	3ac70713          	addi	a4,a4,940 # 33ac <_read+0x3c>
    136c:	97ba                	add	a5,a5,a4
    136e:	439c                	lw	a5,0(a5)
    1370:	8782                	jr	a5
    1372:	81018793          	addi	a5,gp,-2032 # 20000070 <cdc_string_lang_id>
    1376:	0cf1a823          	sw	a5,208(gp) # 20000930 <descriptor_ptr>
    137a:	0d01a783          	lw	a5,208(gp) # 20000930 <descriptor_ptr>
    137e:	0007c903          	lbu	s2,0(a5)
    1382:	0ff00793          	li	a5,255
    1386:	def91ee3          	bne	s2,a5,1182 <cdc_on_setup+0x60>
    138a:	57fd                	li	a5,-1
    138c:	00f400a3          	sb	a5,1(s0)
    1390:	40006737          	lui	a4,0x40006
    1394:	c0075683          	lhu	a3,-1024(a4) # 40005c00 <_eusrstack+0x20000c00>
    1398:	6795                	lui	a5,0x5
    139a:	05078793          	addi	a5,a5,80 # 5050 <_data_lma+0x19f8>
    139e:	40f2                	lw	ra,28(sp)
    13a0:	4462                	lw	s0,24(sp)
    13a2:	8fb5                	xor	a5,a5,a3
    13a4:	c0f71023          	sh	a5,-1024(a4)
    13a8:	44d2                	lw	s1,20(sp)
    13aa:	4942                	lw	s2,16(sp)
    13ac:	49b2                	lw	s3,12(sp)
    13ae:	6105                	addi	sp,sp,32
    13b0:	8082                	ret
    13b2:	678d                	lui	a5,0x3
    13b4:	44c78793          	addi	a5,a5,1100 # 344c <cdc_string_vendor>
    13b8:	bf7d                	j	1376 <cdc_on_setup+0x254>
    13ba:	678d                	lui	a5,0x3
    13bc:	42078793          	addi	a5,a5,1056 # 3420 <cdc_string_product>
    13c0:	bf5d                	j	1376 <cdc_on_setup+0x254>
    13c2:	678d                	lui	a5,0x3
    13c4:	43678793          	addi	a5,a5,1078 # 3436 <cdc_string_serial>
    13c8:	b77d                	j	1376 <cdc_on_setup+0x254>
    13ca:	0cc1c683          	lbu	a3,204(gp) # 2000092c <cdc_config>
    13ce:	400067b7          	lui	a5,0x40006
    13d2:	0007d703          	lhu	a4,0(a5) # 40006000 <_eusrstack+0x20001000>
    13d6:	0706                	slli	a4,a4,0x1
    13d8:	97ba                	add	a5,a5,a4
    13da:	00d79023          	sh	a3,0(a5)
    13de:	4905                	li	s2,1
    13e0:	b34d                	j	1182 <cdc_on_setup+0x60>
    13e2:	00244703          	lbu	a4,2(s0)
    13e6:	0ce18623          	sb	a4,204(gp) # 2000092c <cdc_config>
    13ea:	bb61                	j	1182 <cdc_on_setup+0x60>
    13ec:	400067b7          	lui	a5,0x40006
    13f0:	0007d703          	lhu	a4,0(a5) # 40006000 <_eusrstack+0x20001000>
    13f4:	0706                	slli	a4,a4,0x1
    13f6:	97ba                	add	a5,a5,a4
    13f8:	00079023          	sh	zero,0(a5)
    13fc:	b7cd                	j	13de <cdc_on_setup+0x2bc>
    13fe:	02000793          	li	a5,32
    1402:	f8f714e3          	bne	a4,a5,138a <cdc_on_setup+0x268>
    1406:	00144783          	lbu	a5,1(s0)
    140a:	02100693          	li	a3,33
    140e:	00d78963          	beq	a5,a3,1420 <cdc_on_setup+0x2fe>
    1412:	02200693          	li	a3,34
    1416:	02d78063          	beq	a5,a3,1436 <cdc_on_setup+0x314>
    141a:	f6e798e3          	bne	a5,a4,138a <cdc_on_setup+0x268>
    141e:	b395                	j	1182 <cdc_on_setup+0x60>
    1420:	0009d503          	lhu	a0,0(s3)
    1424:	200005b7          	lui	a1,0x20000
    1428:	4611                	li	a2,4
    142a:	06058593          	addi	a1,a1,96 # 20000060 <cdc_line_coding>
    142e:	94bff0ef          	jal	ra,d78 <usbd_write_to_pma>
    1432:	491d                	li	s2,7
    1434:	b3b9                	j	1182 <cdc_on_setup+0x60>
    1436:	00244703          	lbu	a4,2(s0)
    143a:	86e18c23          	sb	a4,-1928(gp) # 200000d8 <cdc_control_line_state>
    143e:	b391                	j	1182 <cdc_on_setup+0x60>
    1440:	8082                	ret

00001442 <usbd_write_bytes_to_pma>:
    1442:	00020737          	lui	a4,0x20
    1446:	00151793          	slli	a5,a0,0x1
    144a:	1771                	addi	a4,a4,-4
    144c:	8ff9                	and	a5,a5,a4
    144e:	8905                	andi	a0,a0,1
    1450:	40006737          	lui	a4,0x40006
    1454:	1141                	addi	sp,sp,-16
    1456:	97ba                	add	a5,a5,a4
    1458:	c115                	beqz	a0,147c <usbd_write_bytes_to_pma+0x3a>
    145a:	0007d703          	lhu	a4,0(a5)
    145e:	167d                	addi	a2,a2,-1
    1460:	0642                	slli	a2,a2,0x10
    1462:	00e11723          	sh	a4,14(sp)
    1466:	0005c703          	lbu	a4,0(a1)
    146a:	8241                	srli	a2,a2,0x10
    146c:	0791                	addi	a5,a5,4
    146e:	00e107a3          	sb	a4,15(sp)
    1472:	00e15703          	lhu	a4,14(sp)
    1476:	0585                	addi	a1,a1,1
    1478:	fee79e23          	sh	a4,-4(a5)
    147c:	00165713          	srli	a4,a2,0x1
    1480:	6841                	lui	a6,0x10
    1482:	86ba                	mv	a3,a4
    1484:	88be                	mv	a7,a5
    1486:	852e                	mv	a0,a1
    1488:	187d                	addi	a6,a6,-1
    148a:	16fd                	addi	a3,a3,-1
    148c:	06c2                	slli	a3,a3,0x10
    148e:	82c1                	srli	a3,a3,0x10
    1490:	01069f63          	bne	a3,a6,14ae <usbd_write_bytes_to_pma+0x6c>
    1494:	00171693          	slli	a3,a4,0x1
    1498:	8a05                	andi	a2,a2,1
    149a:	070a                	slli	a4,a4,0x2
    149c:	95b6                	add	a1,a1,a3
    149e:	97ba                	add	a5,a5,a4
    14a0:	c609                	beqz	a2,14aa <usbd_write_bytes_to_pma+0x68>
    14a2:	0005c703          	lbu	a4,0(a1)
    14a6:	00e79023          	sh	a4,0(a5)
    14aa:	0141                	addi	sp,sp,16
    14ac:	8082                	ret
    14ae:	00054303          	lbu	t1,0(a0)
    14b2:	0891                	addi	a7,a7,4
    14b4:	0509                	addi	a0,a0,2
    14b6:	00610723          	sb	t1,14(sp)
    14ba:	fff54303          	lbu	t1,-1(a0)
    14be:	006107a3          	sb	t1,15(sp)
    14c2:	00e15303          	lhu	t1,14(sp)
    14c6:	fe689e23          	sh	t1,-4(a7)
    14ca:	b7c1                	j	148a <usbd_write_bytes_to_pma+0x48>

000014cc <usbd_read_bytes_from_pma>:
    14cc:	00020737          	lui	a4,0x20
    14d0:	00151793          	slli	a5,a0,0x1
    14d4:	1771                	addi	a4,a4,-4
    14d6:	8ff9                	and	a5,a5,a4
    14d8:	8905                	andi	a0,a0,1
    14da:	40006737          	lui	a4,0x40006
    14de:	97ba                	add	a5,a5,a4
    14e0:	c919                	beqz	a0,14f6 <usbd_read_bytes_from_pma+0x2a>
    14e2:	0007d703          	lhu	a4,0(a5)
    14e6:	167d                	addi	a2,a2,-1
    14e8:	0642                	slli	a2,a2,0x10
    14ea:	8321                	srli	a4,a4,0x8
    14ec:	00e58023          	sb	a4,0(a1)
    14f0:	8241                	srli	a2,a2,0x10
    14f2:	0791                	addi	a5,a5,4
    14f4:	0585                	addi	a1,a1,1
    14f6:	00165713          	srli	a4,a2,0x1
    14fa:	68c1                	lui	a7,0x10
    14fc:	86ba                	mv	a3,a4
    14fe:	833e                	mv	t1,a5
    1500:	852e                	mv	a0,a1
    1502:	18fd                	addi	a7,a7,-1
    1504:	16fd                	addi	a3,a3,-1
    1506:	06c2                	slli	a3,a3,0x10
    1508:	82c1                	srli	a3,a3,0x10
    150a:	01169e63          	bne	a3,a7,1526 <usbd_read_bytes_from_pma+0x5a>
    150e:	00171693          	slli	a3,a4,0x1
    1512:	8a05                	andi	a2,a2,1
    1514:	070a                	slli	a4,a4,0x2
    1516:	95b6                	add	a1,a1,a3
    1518:	97ba                	add	a5,a5,a4
    151a:	c609                	beqz	a2,1524 <usbd_read_bytes_from_pma+0x58>
    151c:	0007d783          	lhu	a5,0(a5)
    1520:	00f58023          	sb	a5,0(a1)
    1524:	8082                	ret
    1526:	00035803          	lhu	a6,0(t1) # ffff8000 <_eusrstack+0xdfff3000>
    152a:	0509                	addi	a0,a0,2
    152c:	0311                	addi	t1,t1,4
    152e:	ff050f23          	sb	a6,-2(a0)
    1532:	00885813          	srli	a6,a6,0x8
    1536:	ff050fa3          	sb	a6,-1(a0)
    153a:	b7e9                	j	1504 <usbd_read_bytes_from_pma+0x38>

0000153c <cdc_set_serial_state>:
    153c:	1141                	addi	sp,sp,-16
    153e:	c422                	sw	s0,8(sp)
    1540:	40006437          	lui	s0,0x40006
    1544:	c04a                	sw	s2,0(sp)
    1546:	892a                	mv	s2,a0
    1548:	01045503          	lhu	a0,16(s0) # 40006010 <_eusrstack+0x20001010>
    154c:	658d                	lui	a1,0x3
    154e:	4615                	li	a2,5
    1550:	41658593          	addi	a1,a1,1046 # 3416 <cdc_serial_state>
    1554:	c606                	sw	ra,12(sp)
    1556:	c226                	sw	s1,4(sp)
    1558:	821ff0ef          	jal	ra,d78 <usbd_write_to_pma>
    155c:	01045783          	lhu	a5,16(s0)
    1560:	40b2                	lw	ra,12(sp)
    1562:	4492                	lw	s1,4(sp)
    1564:	07a1                	addi	a5,a5,8
    1566:	0786                	slli	a5,a5,0x1
    1568:	97a2                	add	a5,a5,s0
    156a:	01279023          	sh	s2,0(a5)
    156e:	47a9                	li	a5,10
    1570:	00f41a23          	sh	a5,20(s0)
    1574:	c0445703          	lhu	a4,-1020(s0)
    1578:	77e5                	lui	a5,0xffff9
    157a:	fbf78793          	addi	a5,a5,-65 # ffff8fbf <_eusrstack+0xdfff3fbf>
    157e:	8ff9                	and	a5,a5,a4
    1580:	0307c793          	xori	a5,a5,48
    1584:	c0f41223          	sh	a5,-1020(s0)
    1588:	4422                	lw	s0,8(sp)
    158a:	4902                	lw	s2,0(sp)
    158c:	0141                	addi	sp,sp,16
    158e:	8082                	ret

00001590 <cdc_init>:
    1590:	000017b7          	lui	a5,0x1
    1594:	dc478793          	addi	a5,a5,-572 # dc4 <cdc_on_sof>
    1598:	86f1a623          	sw	a5,-1940(gp) # 200000cc <usbd_sof_callback>
    159c:	8401ac23          	sw	zero,-1960(gp) # 200000b8 <usbd_esof_callback>
    15a0:	000017b7          	lui	a5,0x1
    15a4:	05e78793          	addi	a5,a5,94 # 105e <cdc_on_out>
    15a8:	86f1a023          	sw	a5,-1952(gp) # 200000c0 <usbd_out_callback>
    15ac:	000017b7          	lui	a5,0x1
    15b0:	f2e78793          	addi	a5,a5,-210 # f2e <cdc_on_in>
    15b4:	84f1ae23          	sw	a5,-1956(gp) # 200000bc <usbd_in_callback>
    15b8:	000017b7          	lui	a5,0x1
    15bc:	12278793          	addi	a5,a5,290 # 1122 <cdc_on_setup>
    15c0:	86f1a423          	sw	a5,-1944(gp) # 200000c8 <usbd_setup_callback>
    15c4:	000017b7          	lui	a5,0x1
    15c8:	ec078793          	addi	a5,a5,-320 # ec0 <cdc_on_rst>
    15cc:	86f1a223          	sw	a5,-1948(gp) # 200000c4 <usbd_reset_callback>
    15d0:	650d                	lui	a0,0x3
    15d2:	1141                	addi	sp,sp,-16
    15d4:	8601aa23          	sw	zero,-1932(gp) # 200000d4 <usbd_wakeup_callback>
    15d8:	45c50513          	addi	a0,a0,1116 # 345c <usbd_config>
    15dc:	c606                	sw	ra,12(sp)
    15de:	8601a823          	sw	zero,-1936(gp) # 200000d0 <usbd_suspend_callback>
    15e2:	e1aff0ef          	jal	ra,bfc <usbd_init>
    15e6:	40b2                	lw	ra,12(sp)
    15e8:	0c018623          	sb	zero,204(gp) # 2000092c <cdc_config>
    15ec:	4501                	li	a0,0
    15ee:	0141                	addi	sp,sp,16
    15f0:	b7b1                	j	153c <cdc_set_serial_state>

000015f2 <cdc_bytes_available>:
    15f2:	0c91c783          	lbu	a5,201(gp) # 20000929 <ep2_t0_num_bytes>
    15f6:	0c51c503          	lbu	a0,197(gp) # 20000925 <ep2_t1_num_bytes>
    15fa:	953e                	add	a0,a0,a5
    15fc:	0c61c783          	lbu	a5,198(gp) # 20000926 <ep2_t0_read_offset>
    1600:	8d1d                	sub	a0,a0,a5
    1602:	0c81c783          	lbu	a5,200(gp) # 20000928 <ep2_t1_read_offset>
    1606:	8d1d                	sub	a0,a0,a5
    1608:	0542                	slli	a0,a0,0x10
    160a:	8141                	srli	a0,a0,0x10
    160c:	8082                	ret

0000160e <cdc_peek>:
    160e:	0d41c783          	lbu	a5,212(gp) # 20000934 <ep2_read_select>
    1612:	1141                	addi	sp,sp,-16
    1614:	400066b7          	lui	a3,0x40006
    1618:	c78d                	beqz	a5,1642 <cdc_peek+0x34>
    161a:	0286d603          	lhu	a2,40(a3) # 40006028 <_eusrstack+0x20001028>
    161e:	0c81c783          	lbu	a5,200(gp) # 20000928 <ep2_t1_read_offset>
    1622:	0fe7f713          	andi	a4,a5,254
    1626:	9732                	add	a4,a4,a2
    1628:	0706                	slli	a4,a4,0x1
    162a:	9736                	add	a4,a4,a3
    162c:	00075703          	lhu	a4,0(a4) # 40006000 <_eusrstack+0x20001000>
    1630:	8b85                	andi	a5,a5,1
    1632:	00e11723          	sh	a4,14(sp)
    1636:	0818                	addi	a4,sp,16
    1638:	97ba                	add	a5,a5,a4
    163a:	ffe7c503          	lbu	a0,-2(a5)
    163e:	0141                	addi	sp,sp,16
    1640:	8082                	ret
    1642:	0206d603          	lhu	a2,32(a3)
    1646:	0c61c783          	lbu	a5,198(gp) # 20000926 <ep2_t0_read_offset>
    164a:	bfe1                	j	1622 <cdc_peek+0x14>

0000164c <cdc_read_bytes>:
    164c:	7179                	addi	sp,sp,-48
    164e:	d04a                	sw	s2,32(sp)
    1650:	7965                	lui	s2,0xffff9
    1652:	d422                	sw	s0,40(sp)
    1654:	ce4e                	sw	s3,28(sp)
    1656:	cc52                	sw	s4,24(sp)
    1658:	ca56                	sw	s5,20(sp)
    165a:	c85a                	sw	s6,16(sp)
    165c:	c65e                	sw	s7,12(sp)
    165e:	d606                	sw	ra,44(sp)
    1660:	d226                	sw	s1,36(sp)
    1662:	c462                	sw	s8,8(sp)
    1664:	c266                	sw	s9,4(sp)
    1666:	c06a                	sw	s10,0(sp)
    1668:	8a2a                	mv	s4,a0
    166a:	842e                	mv	s0,a1
    166c:	4985                	li	s3,1
    166e:	fcf90913          	addi	s2,s2,-49 # ffff8fcf <_eusrstack+0xdfff3fcf>
    1672:	ec19                	bnez	s0,1690 <cdc_read_bytes+0x44>
    1674:	50b2                	lw	ra,44(sp)
    1676:	5422                	lw	s0,40(sp)
    1678:	5492                	lw	s1,36(sp)
    167a:	5902                	lw	s2,32(sp)
    167c:	49f2                	lw	s3,28(sp)
    167e:	4a62                	lw	s4,24(sp)
    1680:	4ad2                	lw	s5,20(sp)
    1682:	4b42                	lw	s6,16(sp)
    1684:	4bb2                	lw	s7,12(sp)
    1686:	4c22                	lw	s8,8(sp)
    1688:	4c92                	lw	s9,4(sp)
    168a:	4d02                	lw	s10,0(sp)
    168c:	6145                	addi	sp,sp,48
    168e:	8082                	ret
    1690:	0d41c783          	lbu	a5,212(gp) # 20000934 <ep2_read_select>
    1694:	cbcd                	beqz	a5,1746 <cdc_read_bytes+0xfa>
    1696:	0c51c783          	lbu	a5,197(gp) # 20000925 <ep2_t1_num_bytes>
    169a:	0c81c503          	lbu	a0,200(gp) # 20000928 <ep2_t1_read_offset>
    169e:	8f89                	sub	a5,a5,a0
    16a0:	07c2                	slli	a5,a5,0x10
    16a2:	83c1                	srli	a5,a5,0x10
    16a4:	d7f9                	beqz	a5,1672 <cdc_read_bytes+0x26>
    16a6:	84a2                	mv	s1,s0
    16a8:	0087f363          	bgeu	a5,s0,16ae <cdc_read_bytes+0x62>
    16ac:	84be                	mv	s1,a5
    16ae:	40006d37          	lui	s10,0x40006
    16b2:	028d5783          	lhu	a5,40(s10) # 40006028 <_eusrstack+0x20001028>
    16b6:	04c2                	slli	s1,s1,0x10
    16b8:	80c1                	srli	s1,s1,0x10
    16ba:	953e                	add	a0,a0,a5
    16bc:	0542                	slli	a0,a0,0x10
    16be:	8626                	mv	a2,s1
    16c0:	85d2                	mv	a1,s4
    16c2:	8141                	srli	a0,a0,0x10
    16c4:	3521                	jal	14cc <usbd_read_bytes_from_pma>
    16c6:	0c81c783          	lbu	a5,200(gp) # 20000928 <ep2_t1_read_offset>
    16ca:	8c05                	sub	s0,s0,s1
    16cc:	9a26                	add	s4,s4,s1
    16ce:	94be                	add	s1,s1,a5
    16d0:	0c51c783          	lbu	a5,197(gp) # 20000925 <ep2_t1_num_bytes>
    16d4:	0ff4f493          	andi	s1,s1,255
    16d8:	0442                	slli	s0,s0,0x10
    16da:	0c918423          	sb	s1,200(gp) # 20000928 <ep2_t1_read_offset>
    16de:	8041                	srli	s0,s0,0x10
    16e0:	f8f499e3          	bne	s1,a5,1672 <cdc_read_bytes+0x26>
    16e4:	0c018423          	sb	zero,200(gp) # 20000928 <ep2_t1_read_offset>
    16e8:	0c0182a3          	sb	zero,197(gp) # 20000925 <ep2_t1_num_bytes>
    16ec:	0c018a23          	sb	zero,212(gp) # 20000934 <ep2_read_select>
    16f0:	c08d5783          	lhu	a5,-1016(s10)
    16f4:	01179713          	slli	a4,a5,0x11
    16f8:	00075763          	bgez	a4,1706 <cdc_read_bytes+0xba>
    16fc:	c08d5783          	lhu	a5,-1016(s10)
    1700:	0407f793          	andi	a5,a5,64
    1704:	ef91                	bnez	a5,1720 <cdc_read_bytes+0xd4>
    1706:	400067b7          	lui	a5,0x40006
    170a:	c087d703          	lhu	a4,-1016(a5) # 40005c08 <_eusrstack+0x20000c08>
    170e:	01171693          	slli	a3,a4,0x11
    1712:	f606c0e3          	bltz	a3,1672 <cdc_read_bytes+0x26>
    1716:	c087d783          	lhu	a5,-1016(a5)
    171a:	0407f793          	andi	a5,a5,64
    171e:	fbb1                	bnez	a5,1672 <cdc_read_bytes+0x26>
    1720:	40006737          	lui	a4,0x40006
    1724:	c0875783          	lhu	a5,-1016(a4) # 40005c08 <_eusrstack+0x20000c08>
    1728:	00f977b3          	and	a5,s2,a5
    172c:	c0f71423          	sh	a5,-1016(a4)
    1730:	c0875683          	lhu	a3,-1016(a4)
    1734:	77f1                	lui	a5,0xffffc
    1736:	f8f78793          	addi	a5,a5,-113 # ffffbf8f <_eusrstack+0xdfff6f8f>
    173a:	8ff5                	and	a5,a5,a3
    173c:	668d                	lui	a3,0x3
    173e:	8fb5                	xor	a5,a5,a3
    1740:	c0f71423          	sh	a5,-1016(a4)
    1744:	b73d                	j	1672 <cdc_read_bytes+0x26>
    1746:	0c91c783          	lbu	a5,201(gp) # 20000929 <ep2_t0_num_bytes>
    174a:	0c61c503          	lbu	a0,198(gp) # 20000926 <ep2_t0_read_offset>
    174e:	8f89                	sub	a5,a5,a0
    1750:	07c2                	slli	a5,a5,0x10
    1752:	83c1                	srli	a5,a5,0x10
    1754:	df99                	beqz	a5,1672 <cdc_read_bytes+0x26>
    1756:	84a2                	mv	s1,s0
    1758:	0087f363          	bgeu	a5,s0,175e <cdc_read_bytes+0x112>
    175c:	84be                	mv	s1,a5
    175e:	40006c37          	lui	s8,0x40006
    1762:	020c5783          	lhu	a5,32(s8) # 40006020 <_eusrstack+0x20001020>
    1766:	04c2                	slli	s1,s1,0x10
    1768:	80c1                	srli	s1,s1,0x10
    176a:	953e                	add	a0,a0,a5
    176c:	0542                	slli	a0,a0,0x10
    176e:	8626                	mv	a2,s1
    1770:	85d2                	mv	a1,s4
    1772:	8141                	srli	a0,a0,0x10
    1774:	3ba1                	jal	14cc <usbd_read_bytes_from_pma>
    1776:	0c61c783          	lbu	a5,198(gp) # 20000926 <ep2_t0_read_offset>
    177a:	8c05                	sub	s0,s0,s1
    177c:	9a26                	add	s4,s4,s1
    177e:	94be                	add	s1,s1,a5
    1780:	0c91c783          	lbu	a5,201(gp) # 20000929 <ep2_t0_num_bytes>
    1784:	0ff4f493          	andi	s1,s1,255
    1788:	0442                	slli	s0,s0,0x10
    178a:	0c918323          	sb	s1,198(gp) # 20000926 <ep2_t0_read_offset>
    178e:	8041                	srli	s0,s0,0x10
    1790:	eef491e3          	bne	s1,a5,1672 <cdc_read_bytes+0x26>
    1794:	0c018323          	sb	zero,198(gp) # 20000926 <ep2_t0_read_offset>
    1798:	0c0184a3          	sb	zero,201(gp) # 20000929 <ep2_t0_num_bytes>
    179c:	0d318a23          	sb	s3,212(gp) # 20000934 <ep2_read_select>
    17a0:	c08c5783          	lhu	a5,-1016(s8)
    17a4:	01179713          	slli	a4,a5,0x11
    17a8:	00075763          	bgez	a4,17b6 <cdc_read_bytes+0x16a>
    17ac:	c08c5783          	lhu	a5,-1016(s8)
    17b0:	0407f793          	andi	a5,a5,64
    17b4:	ef99                	bnez	a5,17d2 <cdc_read_bytes+0x186>
    17b6:	400067b7          	lui	a5,0x40006
    17ba:	c087d703          	lhu	a4,-1016(a5) # 40005c08 <_eusrstack+0x20000c08>
    17be:	01171693          	slli	a3,a4,0x11
    17c2:	ea06c8e3          	bltz	a3,1672 <cdc_read_bytes+0x26>
    17c6:	c087d783          	lhu	a5,-1016(a5)
    17ca:	0407f793          	andi	a5,a5,64
    17ce:	ea0792e3          	bnez	a5,1672 <cdc_read_bytes+0x26>
    17d2:	40006737          	lui	a4,0x40006
    17d6:	c0875783          	lhu	a5,-1016(a4) # 40005c08 <_eusrstack+0x20000c08>
    17da:	00f977b3          	and	a5,s2,a5
    17de:	0407c793          	xori	a5,a5,64
    17e2:	b7a9                	j	172c <cdc_read_bytes+0xe0>

000017e4 <cdc_write_bytes>:
    17e4:	7139                	addi	sp,sp,-64
    17e6:	d84a                	sw	s2,48(sp)
    17e8:	d64e                	sw	s3,44(sp)
    17ea:	4785                	li	a5,1
    17ec:	79f5                	lui	s3,0xffffd
    17ee:	dc22                	sw	s0,56(sp)
    17f0:	d452                	sw	s4,40(sp)
    17f2:	d256                	sw	s5,36(sp)
    17f4:	d05a                	sw	s6,32(sp)
    17f6:	cc62                	sw	s8,24(sp)
    17f8:	ca66                	sw	s9,20(sp)
    17fa:	de06                	sw	ra,60(sp)
    17fc:	da26                	sw	s1,52(sp)
    17fe:	ce5e                	sw	s7,28(sp)
    1800:	c86a                	sw	s10,16(sp)
    1802:	c66e                	sw	s11,12(sp)
    1804:	8c2a                	mv	s8,a0
    1806:	842e                	mv	s0,a1
    1808:	0cf183a3          	sb	a5,199(gp) # 20000927 <ep3_wip>
    180c:	4b05                	li	s6,1
    180e:	f8f98993          	addi	s3,s3,-113 # ffffcf8f <_eusrstack+0xdfff7f8f>
    1812:	e015                	bnez	s0,1836 <cdc_write_bytes+0x52>
    1814:	50f2                	lw	ra,60(sp)
    1816:	5462                	lw	s0,56(sp)
    1818:	0c0183a3          	sb	zero,199(gp) # 20000927 <ep3_wip>
    181c:	54d2                	lw	s1,52(sp)
    181e:	5942                	lw	s2,48(sp)
    1820:	59b2                	lw	s3,44(sp)
    1822:	5a22                	lw	s4,40(sp)
    1824:	5a92                	lw	s5,36(sp)
    1826:	5b02                	lw	s6,32(sp)
    1828:	4bf2                	lw	s7,28(sp)
    182a:	4c62                	lw	s8,24(sp)
    182c:	4cd2                	lw	s9,20(sp)
    182e:	4d42                	lw	s10,16(sp)
    1830:	4db2                	lw	s11,12(sp)
    1832:	6121                	addi	sp,sp,64
    1834:	8082                	ret
    1836:	0cd1c783          	lbu	a5,205(gp) # 2000092d <ep3_write_select>
    183a:	0ff7f793          	andi	a5,a5,255
    183e:	cfd5                	beqz	a5,18fa <cdc_write_bytes+0x116>
    1840:	0de1c483          	lbu	s1,222(gp) # 2000093e <ep3_t1_num_bytes>
    1844:	04000793          	li	a5,64
    1848:	0ff4f493          	andi	s1,s1,255
    184c:	01049513          	slli	a0,s1,0x10
    1850:	8141                	srli	a0,a0,0x10
    1852:	8f89                	sub	a5,a5,a0
    1854:	07c2                	slli	a5,a5,0x10
    1856:	83c1                	srli	a5,a5,0x10
    1858:	dfcd                	beqz	a5,1812 <cdc_write_bytes+0x2e>
    185a:	8622                	mv	a2,s0
    185c:	0087f363          	bgeu	a5,s0,1862 <cdc_write_bytes+0x7e>
    1860:	863e                	mv	a2,a5
    1862:	40006d37          	lui	s10,0x40006
    1866:	038d5783          	lhu	a5,56(s10) # 40006038 <_eusrstack+0x20001038>
    186a:	01061b93          	slli	s7,a2,0x10
    186e:	010bdb93          	srli	s7,s7,0x10
    1872:	953e                	add	a0,a0,a5
    1874:	0542                	slli	a0,a0,0x10
    1876:	865e                	mv	a2,s7
    1878:	85e2                	mv	a1,s8
    187a:	8141                	srli	a0,a0,0x10
    187c:	36d9                	jal	1442 <usbd_write_bytes_to_pma>
    187e:	01748633          	add	a2,s1,s7
    1882:	41740433          	sub	s0,s0,s7
    1886:	0ff67613          	andi	a2,a2,255
    188a:	0442                	slli	s0,s0,0x10
    188c:	0cc18f23          	sb	a2,222(gp) # 2000093e <ep3_t1_num_bytes>
    1890:	04000793          	li	a5,64
    1894:	8041                	srli	s0,s0,0x10
    1896:	9c5e                	add	s8,s8,s7
    1898:	f6f61de3          	bne	a2,a5,1812 <cdc_write_bytes+0x2e>
    189c:	02cd1e23          	sh	a2,60(s10)
    18a0:	0c0186a3          	sb	zero,205(gp) # 2000092d <ep3_write_select>
    18a4:	c0cd5783          	lhu	a5,-1012(s10)
    18a8:	01179713          	slli	a4,a5,0x11
    18ac:	00075763          	bgez	a4,18ba <cdc_write_bytes+0xd6>
    18b0:	c0cd5783          	lhu	a5,-1012(s10)
    18b4:	0407f793          	andi	a5,a5,64
    18b8:	ef91                	bnez	a5,18d4 <cdc_write_bytes+0xf0>
    18ba:	400067b7          	lui	a5,0x40006
    18be:	c0c7d703          	lhu	a4,-1012(a5) # 40005c0c <_eusrstack+0x20000c0c>
    18c2:	01171693          	slli	a3,a4,0x11
    18c6:	f406c6e3          	bltz	a3,1812 <cdc_write_bytes+0x2e>
    18ca:	c0c7d783          	lhu	a5,-1012(a5)
    18ce:	0407f793          	andi	a5,a5,64
    18d2:	f3a1                	bnez	a5,1812 <cdc_write_bytes+0x2e>
    18d4:	40006737          	lui	a4,0x40006
    18d8:	c0c75783          	lhu	a5,-1012(a4) # 40005c0c <_eusrstack+0x20000c0c>
    18dc:	00f9f7b3          	and	a5,s3,a5
    18e0:	c0f71623          	sh	a5,-1012(a4)
    18e4:	c0c75683          	lhu	a3,-1012(a4)
    18e8:	77e5                	lui	a5,0xffff9
    18ea:	fbf78793          	addi	a5,a5,-65 # ffff8fbf <_eusrstack+0xdfff3fbf>
    18ee:	8ff5                	and	a5,a5,a3
    18f0:	0307c793          	xori	a5,a5,48
    18f4:	c0f71623          	sh	a5,-1012(a4)
    18f8:	bf29                	j	1812 <cdc_write_bytes+0x2e>
    18fa:	0c41c483          	lbu	s1,196(gp) # 20000924 <ep3_t0_num_bytes>
    18fe:	04000793          	li	a5,64
    1902:	0ff4f493          	andi	s1,s1,255
    1906:	01049513          	slli	a0,s1,0x10
    190a:	8141                	srli	a0,a0,0x10
    190c:	8f89                	sub	a5,a5,a0
    190e:	07c2                	slli	a5,a5,0x10
    1910:	83c1                	srli	a5,a5,0x10
    1912:	f00780e3          	beqz	a5,1812 <cdc_write_bytes+0x2e>
    1916:	8622                	mv	a2,s0
    1918:	0087f363          	bgeu	a5,s0,191e <cdc_write_bytes+0x13a>
    191c:	863e                	mv	a2,a5
    191e:	40006d37          	lui	s10,0x40006
    1922:	030d5783          	lhu	a5,48(s10) # 40006030 <_eusrstack+0x20001030>
    1926:	01061b93          	slli	s7,a2,0x10
    192a:	010bdb93          	srli	s7,s7,0x10
    192e:	953e                	add	a0,a0,a5
    1930:	0542                	slli	a0,a0,0x10
    1932:	865e                	mv	a2,s7
    1934:	85e2                	mv	a1,s8
    1936:	8141                	srli	a0,a0,0x10
    1938:	3629                	jal	1442 <usbd_write_bytes_to_pma>
    193a:	01748633          	add	a2,s1,s7
    193e:	41740433          	sub	s0,s0,s7
    1942:	0ff67613          	andi	a2,a2,255
    1946:	0442                	slli	s0,s0,0x10
    1948:	0cc18223          	sb	a2,196(gp) # 20000924 <ep3_t0_num_bytes>
    194c:	04000793          	li	a5,64
    1950:	8041                	srli	s0,s0,0x10
    1952:	9c5e                	add	s8,s8,s7
    1954:	eaf61fe3          	bne	a2,a5,1812 <cdc_write_bytes+0x2e>
    1958:	02cd1a23          	sh	a2,52(s10)
    195c:	0d6186a3          	sb	s6,205(gp) # 2000092d <ep3_write_select>
    1960:	c0cd5783          	lhu	a5,-1012(s10)
    1964:	01179713          	slli	a4,a5,0x11
    1968:	00075763          	bgez	a4,1976 <cdc_write_bytes+0x192>
    196c:	c0cd5783          	lhu	a5,-1012(s10)
    1970:	0407f793          	andi	a5,a5,64
    1974:	ef99                	bnez	a5,1992 <cdc_write_bytes+0x1ae>
    1976:	400067b7          	lui	a5,0x40006
    197a:	c0c7d703          	lhu	a4,-1012(a5) # 40005c0c <_eusrstack+0x20000c0c>
    197e:	01171693          	slli	a3,a4,0x11
    1982:	e806c8e3          	bltz	a3,1812 <cdc_write_bytes+0x2e>
    1986:	c0c7d783          	lhu	a5,-1012(a5)
    198a:	0407f793          	andi	a5,a5,64
    198e:	e80792e3          	bnez	a5,1812 <cdc_write_bytes+0x2e>
    1992:	40006737          	lui	a4,0x40006
    1996:	c0c75783          	lhu	a5,-1012(a4) # 40005c0c <_eusrstack+0x20000c0c>
    199a:	6691                	lui	a3,0x4
    199c:	00f9f7b3          	and	a5,s3,a5
    19a0:	8fb5                	xor	a5,a5,a3
    19a2:	bf3d                	j	18e0 <cdc_write_bytes+0xfc>

000019a4 <fifo_init>:
    19a4:	00c51023          	sh	a2,0(a0)
    19a8:	c14c                	sw	a1,4(a0)
    19aa:	00052423          	sw	zero,8(a0)
    19ae:	00051623          	sh	zero,12(a0)
    19b2:	8082                	ret

000019b4 <fifo_push>:
    19b4:	00855703          	lhu	a4,8(a0)
    19b8:	00055783          	lhu	a5,0(a0)
    19bc:	02f77863          	bgeu	a4,a5,19ec <fifo_push+0x38>
    19c0:	00c55703          	lhu	a4,12(a0)
    19c4:	415c                	lw	a5,4(a0)
    19c6:	97ba                	add	a5,a5,a4
    19c8:	00b78023          	sb	a1,0(a5)
    19cc:	00c55783          	lhu	a5,12(a0)
    19d0:	00055703          	lhu	a4,0(a0)
    19d4:	0785                	addi	a5,a5,1
    19d6:	177d                	addi	a4,a4,-1
    19d8:	8ff9                	and	a5,a5,a4
    19da:	00f51623          	sh	a5,12(a0)
    19de:	00855783          	lhu	a5,8(a0)
    19e2:	0785                	addi	a5,a5,1
    19e4:	00f51423          	sh	a5,8(a0)
    19e8:	4505                	li	a0,1
    19ea:	8082                	ret
    19ec:	4501                	li	a0,0
    19ee:	8082                	ret

000019f0 <fifo_pop>:
    19f0:	00855683          	lhu	a3,8(a0)
    19f4:	87aa                	mv	a5,a0
    19f6:	c295                	beqz	a3,1a1a <fifo_pop+0x2a>
    19f8:	00a55603          	lhu	a2,10(a0)
    19fc:	4158                	lw	a4,4(a0)
    19fe:	16fd                	addi	a3,a3,-1
    1a00:	9732                	add	a4,a4,a2
    1a02:	00074503          	lbu	a0,0(a4)
    1a06:	0007d703          	lhu	a4,0(a5)
    1a0a:	0605                	addi	a2,a2,1
    1a0c:	00d79423          	sh	a3,8(a5)
    1a10:	177d                	addi	a4,a4,-1
    1a12:	8f71                	and	a4,a4,a2
    1a14:	00e79523          	sh	a4,10(a5)
    1a18:	8082                	ret
    1a1a:	4501                	li	a0,0
    1a1c:	8082                	ret

00001a1e <fifo_write>:
    1a1e:	00055703          	lhu	a4,0(a0)
    1a22:	00855783          	lhu	a5,8(a0)
    1a26:	40f707b3          	sub	a5,a4,a5
    1a2a:	08c7ca63          	blt	a5,a2,1abe <fifo_write+0xa0>
    1a2e:	00c55803          	lhu	a6,12(a0)
    1a32:	410707b3          	sub	a5,a4,a6
    1a36:	07c2                	slli	a5,a5,0x10
    1a38:	83c1                	srli	a5,a5,0x10
    1a3a:	02f66763          	bltu	a2,a5,1a68 <fifo_write+0x4a>
    1a3e:	00452303          	lw	t1,4(a0)
    1a42:	4681                	li	a3,0
    1a44:	01069893          	slli	a7,a3,0x10
    1a48:	0108d893          	srli	a7,a7,0x10
    1a4c:	04f8e363          	bltu	a7,a5,1a92 <fifo_write+0x74>
    1a50:	00855683          	lhu	a3,8(a0)
    1a54:	8e19                	sub	a2,a2,a4
    1a56:	9642                	add	a2,a2,a6
    1a58:	95be                	add	a1,a1,a5
    1a5a:	0642                	slli	a2,a2,0x10
    1a5c:	97b6                	add	a5,a5,a3
    1a5e:	00051623          	sh	zero,12(a0)
    1a62:	00f51423          	sh	a5,8(a0)
    1a66:	8241                	srli	a2,a2,0x10
    1a68:	4154                	lw	a3,4(a0)
    1a6a:	00c55803          	lhu	a6,12(a0)
    1a6e:	4781                	li	a5,0
    1a70:	01079713          	slli	a4,a5,0x10
    1a74:	8341                	srli	a4,a4,0x10
    1a76:	02c76963          	bltu	a4,a2,1aa8 <fifo_write+0x8a>
    1a7a:	00c55783          	lhu	a5,12(a0)
    1a7e:	97b2                	add	a5,a5,a2
    1a80:	00f51623          	sh	a5,12(a0)
    1a84:	00855783          	lhu	a5,8(a0)
    1a88:	963e                	add	a2,a2,a5
    1a8a:	00c51423          	sh	a2,8(a0)
    1a8e:	4505                	li	a0,1
    1a90:	8082                	ret
    1a92:	00d588b3          	add	a7,a1,a3
    1a96:	0008ce03          	lbu	t3,0(a7) # 10000 <_data_lma+0xc9a8>
    1a9a:	00d808b3          	add	a7,a6,a3
    1a9e:	989a                	add	a7,a7,t1
    1aa0:	01c88023          	sb	t3,0(a7)
    1aa4:	0685                	addi	a3,a3,1
    1aa6:	bf79                	j	1a44 <fifo_write+0x26>
    1aa8:	00f58733          	add	a4,a1,a5
    1aac:	00074883          	lbu	a7,0(a4)
    1ab0:	00f80733          	add	a4,a6,a5
    1ab4:	9736                	add	a4,a4,a3
    1ab6:	01170023          	sb	a7,0(a4)
    1aba:	0785                	addi	a5,a5,1
    1abc:	bf55                	j	1a70 <fifo_write+0x52>
    1abe:	4501                	li	a0,0
    1ac0:	8082                	ret

00001ac2 <fw_write_rtmi_control>:
    1ac2:	00f57713          	andi	a4,a0,15
    1ac6:	86a19d23          	sh	a0,-1926(gp) # 200000da <rtmi_control>
    1aca:	88e181a3          	sb	a4,-1917(gp) # 200000e3 <trigger_mode>
    1ace:	00455793          	srli	a5,a0,0x4
    1ad2:	8bbd                	andi	a5,a5,15
    1ad4:	8121                	srli	a0,a0,0x8
    1ad6:	88f18123          	sb	a5,-1918(gp) # 200000e2 <trigger_channel>
    1ada:	893d                	andi	a0,a0,15
    1adc:	86a18ca3          	sb	a0,-1927(gp) # 200000d9 <num_channels>
    1ae0:	8082                	ret

00001ae2 <nano_write_reg>:
    1ae2:	1141                	addi	sp,sp,-16
    1ae4:	c606                	sw	ra,12(sp)
    1ae6:	c422                	sw	s0,8(sp)
    1ae8:	c226                	sw	s1,4(sp)
    1aea:	c04a                	sw	s2,0(sp)
    1aec:	40011437          	lui	s0,0x40011
    1af0:	64a1                	lui	s1,0x8
    1af2:	892e                	mv	s2,a1
    1af4:	80942a23          	sw	s1,-2028(s0) # 40010814 <_eusrstack+0x2000b814>
    1af8:	85aa                	mv	a1,a0
    1afa:	40013537          	lui	a0,0x40013
    1afe:	b95fe0ef          	jal	ra,692 <spi_transfer>
    1b02:	00895593          	srli	a1,s2,0x8
    1b06:	40013537          	lui	a0,0x40013
    1b0a:	b89fe0ef          	jal	ra,692 <spi_transfer>
    1b0e:	0ff97593          	andi	a1,s2,255
    1b12:	40013537          	lui	a0,0x40013
    1b16:	b7dfe0ef          	jal	ra,692 <spi_transfer>
    1b1a:	40b2                	lw	ra,12(sp)
    1b1c:	80942823          	sw	s1,-2032(s0)
    1b20:	4422                	lw	s0,8(sp)
    1b22:	4492                	lw	s1,4(sp)
    1b24:	4902                	lw	s2,0(sp)
    1b26:	0141                	addi	sp,sp,16
    1b28:	8082                	ret

00001b2a <nano_read_reg>:
    1b2a:	1101                	addi	sp,sp,-32
    1b2c:	ce06                	sw	ra,28(sp)
    1b2e:	cc22                	sw	s0,24(sp)
    1b30:	ca26                	sw	s1,20(sp)
    1b32:	c84a                	sw	s2,16(sp)
    1b34:	40011437          	lui	s0,0x40011
    1b38:	64a1                	lui	s1,0x8
    1b3a:	80942a23          	sw	s1,-2028(s0) # 40010814 <_eusrstack+0x2000b814>
    1b3e:	892a                	mv	s2,a0
    1b40:	85aa                	mv	a1,a0
    1b42:	40013537          	lui	a0,0x40013
    1b46:	b4dfe0ef          	jal	ra,692 <spi_transfer>
    1b4a:	4581                	li	a1,0
    1b4c:	40013537          	lui	a0,0x40013
    1b50:	b43fe0ef          	jal	ra,692 <spi_transfer>
    1b54:	4581                	li	a1,0
    1b56:	40013537          	lui	a0,0x40013
    1b5a:	b39fe0ef          	jal	ra,692 <spi_transfer>
    1b5e:	4505                	li	a0,1
    1b60:	80942823          	sw	s1,-2032(s0)
    1b64:	23bd                	jal	20d2 <delay_us>
    1b66:	85ca                	mv	a1,s2
    1b68:	80942a23          	sw	s1,-2028(s0)
    1b6c:	40013537          	lui	a0,0x40013
    1b70:	b23fe0ef          	jal	ra,692 <spi_transfer>
    1b74:	4581                	li	a1,0
    1b76:	40013537          	lui	a0,0x40013
    1b7a:	b19fe0ef          	jal	ra,692 <spi_transfer>
    1b7e:	00a106a3          	sb	a0,13(sp)
    1b82:	4581                	li	a1,0
    1b84:	40013537          	lui	a0,0x40013
    1b88:	b0bfe0ef          	jal	ra,692 <spi_transfer>
    1b8c:	00a10623          	sb	a0,12(sp)
    1b90:	80942823          	sw	s1,-2032(s0)
    1b94:	40f2                	lw	ra,28(sp)
    1b96:	4462                	lw	s0,24(sp)
    1b98:	00c15503          	lhu	a0,12(sp)
    1b9c:	44d2                	lw	s1,20(sp)
    1b9e:	4942                	lw	s2,16(sp)
    1ba0:	6105                	addi	sp,sp,32
    1ba2:	8082                	ret

00001ba4 <on_foc_int>:
    1ba4:	7179                	addi	sp,sp,-48
    1ba6:	d422                	sw	s0,40(sp)
    1ba8:	87a19783          	lh	a5,-1926(gp) # 200000da <rtmi_control>
    1bac:	d606                	sw	ra,44(sp)
    1bae:	d226                	sw	s1,36(sp)
    1bb0:	d04a                	sw	s2,32(sp)
    1bb2:	ce4e                	sw	s3,28(sp)
    1bb4:	87a18413          	addi	s0,gp,-1926 # 200000da <rtmi_control>
    1bb8:	0607d163          	bgez	a5,1c1a <on_foc_int+0x76>
    1bbc:	8821c783          	lbu	a5,-1918(gp) # 200000e2 <trigger_channel>
    1bc0:	0e418713          	addi	a4,gp,228 # 20000944 <rtmi_channels>
    1bc4:	97ba                	add	a5,a5,a4
    1bc6:	0007c503          	lbu	a0,0(a5)
    1bca:	3785                	jal	1b2a <nano_read_reg>
    1bcc:	8831c783          	lbu	a5,-1917(gp) # 200000e3 <trigger_mode>
    1bd0:	4719                	li	a4,6
    1bd2:	02f76863          	bltu	a4,a5,1c02 <on_foc_int+0x5e>
    1bd6:	670d                	lui	a4,0x3
    1bd8:	078a                	slli	a5,a5,0x2
    1bda:	49070713          	addi	a4,a4,1168 # 3490 <usbd_config+0x34>
    1bde:	97ba                	add	a5,a5,a4
    1be0:	439c                	lw	a5,0(a5)
    1be2:	8782                	jr	a5
    1be4:	8801d783          	lhu	a5,-1920(gp) # 200000e0 <rtmi_threshold>
    1be8:	00a7fd63          	bgeu	a5,a0,1c02 <on_foc_int+0x5e>
    1bec:	00045783          	lhu	a5,0(s0)
    1bf0:	6709                	lui	a4,0x2
    1bf2:	8fd9                	or	a5,a5,a4
    1bf4:	00f41023          	sh	a5,0(s0)
    1bf8:	a029                	j	1c02 <on_foc_int+0x5e>
    1bfa:	8801d783          	lhu	a5,-1920(gp) # 200000e0 <rtmi_threshold>
    1bfe:	fef567e3          	bltu	a0,a5,1bec <on_foc_int+0x48>
    1c02:	00045783          	lhu	a5,0(s0)
    1c06:	01279713          	slli	a4,a5,0x12
    1c0a:	00075863          	bgez	a4,1c1a <on_foc_int+0x76>
    1c0e:	07c6                	slli	a5,a5,0x11
    1c10:	83c5                	srli	a5,a5,0x11
    1c12:	00f41023          	sh	a5,0(s0)
    1c16:	86019f23          	sh	zero,-1922(gp) # 200000de <rtmi_sample_count>
    1c1a:	00045783          	lhu	a5,0(s0)
    1c1e:	6719                	lui	a4,0x6
    1c20:	8ff9                	and	a5,a5,a4
    1c22:	efd1                	bnez	a5,1cbe <on_foc_int+0x11a>
    1c24:	50b2                	lw	ra,44(sp)
    1c26:	5422                	lw	s0,40(sp)
    1c28:	5492                	lw	s1,36(sp)
    1c2a:	5902                	lw	s2,32(sp)
    1c2c:	49f2                	lw	s3,28(sp)
    1c2e:	6145                	addi	sp,sp,48
    1c30:	8082                	ret
    1c32:	88019783          	lh	a5,-1920(gp) # 200000e0 <rtmi_threshold>
    1c36:	0542                	slli	a0,a0,0x10
    1c38:	8541                	srai	a0,a0,0x10
    1c3a:	fca7d4e3          	bge	a5,a0,1c02 <on_foc_int+0x5e>
    1c3e:	b77d                	j	1bec <on_foc_int+0x48>
    1c40:	88019783          	lh	a5,-1920(gp) # 200000e0 <rtmi_threshold>
    1c44:	0542                	slli	a0,a0,0x10
    1c46:	8541                	srai	a0,a0,0x10
    1c48:	faf55de3          	bge	a0,a5,1c02 <on_foc_int+0x5e>
    1c4c:	b745                	j	1bec <on_foc_int+0x48>
    1c4e:	8801d783          	lhu	a5,-1920(gp) # 200000e0 <rtmi_threshold>
    1c52:	faa798e3          	bne	a5,a0,1c02 <on_foc_int+0x5e>
    1c56:	bf59                	j	1bec <on_foc_int+0x48>
    1c58:	8801d783          	lhu	a5,-1920(gp) # 200000e0 <rtmi_threshold>
    1c5c:	f8a798e3          	bne	a5,a0,1bec <on_foc_int+0x48>
    1c60:	b74d                	j	1c02 <on_foc_int+0x5e>
    1c62:	012487b3          	add	a5,s1,s2
    1c66:	0007c503          	lbu	a0,0(a5)
    1c6a:	35c1                	jal	1b2a <nano_read_reg>
    1c6c:	00855793          	srli	a5,a0,0x8
    1c70:	00910623          	sb	s1,12(sp)
    1c74:	00a10723          	sb	a0,14(sp)
    1c78:	458d                	li	a1,3
    1c7a:	0068                	addi	a0,sp,12
    1c7c:	0485                	addi	s1,s1,1
    1c7e:	00f106a3          	sb	a5,13(sp)
    1c82:	0ff4f493          	andi	s1,s1,255
    1c86:	3eb9                	jal	17e4 <cdc_write_bytes>
    1c88:	8791c783          	lbu	a5,-1927(gp) # 200000d9 <num_channels>
    1c8c:	fcf4ebe3          	bltu	s1,a5,1c62 <on_foc_int+0xbe>
    1c90:	87e18713          	addi	a4,gp,-1922 # 200000de <rtmi_sample_count>
    1c94:	00075783          	lhu	a5,0(a4) # 6000 <_data_lma+0x29a8>
    1c98:	0785                	addi	a5,a5,1
    1c9a:	07c2                	slli	a5,a5,0x10
    1c9c:	83c1                	srli	a5,a5,0x10
    1c9e:	00f71023          	sh	a5,0(a4)
    1ca2:	87c1d703          	lhu	a4,-1924(gp) # 200000dc <rtmi_num_samples>
    1ca6:	f6f71fe3          	bne	a4,a5,1c24 <on_foc_int+0x80>
    1caa:	00045783          	lhu	a5,0(s0)
    1cae:	7779                	lui	a4,0xffffe
    1cb0:	177d                	addi	a4,a4,-1
    1cb2:	8ff9                	and	a5,a5,a4
    1cb4:	6705                	lui	a4,0x1
    1cb6:	8fd9                	or	a5,a5,a4
    1cb8:	00f41023          	sh	a5,0(s0)
    1cbc:	b7a5                	j	1c24 <on_foc_int+0x80>
    1cbe:	4481                	li	s1,0
    1cc0:	0e418913          	addi	s2,gp,228 # 20000944 <rtmi_channels>
    1cc4:	b7d1                	j	1c88 <on_foc_int+0xe4>

00001cc6 <main>:
    1cc6:	400217b7          	lui	a5,0x40021
    1cca:	4f98                	lw	a4,24(a5)
    1ccc:	6699                	lui	a3,0x6
    1cce:	7139                	addi	sp,sp,-64
    1cd0:	81d68693          	addi	a3,a3,-2019 # 581d <_data_lma+0x21c5>
    1cd4:	de06                	sw	ra,60(sp)
    1cd6:	dc22                	sw	s0,56(sp)
    1cd8:	da26                	sw	s1,52(sp)
    1cda:	d84a                	sw	s2,48(sp)
    1cdc:	d64e                	sw	s3,44(sp)
    1cde:	d452                	sw	s4,40(sp)
    1ce0:	d256                	sw	s5,36(sp)
    1ce2:	d05a                	sw	s6,32(sp)
    1ce4:	ce5e                	sw	s7,28(sp)
    1ce6:	8f55                	or	a4,a4,a3
    1ce8:	cf98                	sw	a4,24(a5)
    1cea:	4fd8                	lw	a4,28(a5)
    1cec:	008206b7          	lui	a3,0x820
    1cf0:	0685                	addi	a3,a3,1
    1cf2:	8f55                	or	a4,a4,a3
    1cf4:	40011437          	lui	s0,0x40011
    1cf8:	cfd8                	sw	a4,28(a5)
    1cfa:	20000613          	li	a2,512
    1cfe:	45ad                	li	a1,11
    1d00:	80040513          	addi	a0,s0,-2048 # 40010800 <_eusrstack+0x2000b800>
    1d04:	ecafe0ef          	jal	ra,3ce <gpio_set_mode>
    1d08:	48000613          	li	a2,1152
    1d0c:	45ad                	li	a1,11
    1d0e:	80040513          	addi	a0,s0,-2048
    1d12:	ebcfe0ef          	jal	ra,3ce <gpio_set_mode>
    1d16:	6621                	lui	a2,0x8
    1d18:	458d                	li	a1,3
    1d1a:	80040513          	addi	a0,s0,-2048
    1d1e:	eb0fe0ef          	jal	ra,3ce <gpio_set_mode>
    1d22:	02800613          	li	a2,40
    1d26:	45ad                	li	a1,11
    1d28:	c0040513          	addi	a0,s0,-1024
    1d2c:	ea2fe0ef          	jal	ra,3ce <gpio_set_mode>
    1d30:	4641                	li	a2,16
    1d32:	45a1                	li	a1,8
    1d34:	c0040513          	addi	a0,s0,-1024
    1d38:	e96fe0ef          	jal	ra,3ce <gpio_set_mode>
    1d3c:	67a1                	lui	a5,0x8
    1d3e:	48078793          	addi	a5,a5,1152 # 8480 <_data_lma+0x4e28>
    1d42:	80f42823          	sw	a5,-2032(s0)
    1d46:	47c1                	li	a5,16
    1d48:	c0f42823          	sw	a5,-1008(s0)
    1d4c:	2ea1                	jal	20a4 <delay_init>
    1d4e:	65f1                	lui	a1,0x1c
    1d50:	40014537          	lui	a0,0x40014
    1d54:	20058593          	addi	a1,a1,512 # 1c200 <_data_lma+0x18ba8>
    1d58:	80050513          	addi	a0,a0,-2048 # 40013800 <_eusrstack+0x2000e800>
    1d5c:	aeffe0ef          	jal	ra,84a <uart_init>
    1d60:	00200737          	lui	a4,0x200
    1d64:	e000e7b7          	lui	a5,0xe000e
    1d68:	10e7a223          	sw	a4,260(a5) # e000e104 <_eusrstack+0xc0009104>
    1d6c:	825ff0ef          	jal	ra,1590 <cdc_init>
    1d70:	450d                	li	a0,3
    1d72:	fcaff0ef          	jal	ra,153c <cdc_set_serial_state>
    1d76:	8781c483          	lbu	s1,-1928(gp) # 200000d8 <cdc_control_line_state>
    1d7a:	0ff4f493          	andi	s1,s1,255
    1d7e:	0cc1c783          	lbu	a5,204(gp) # 2000092c <cdc_config>
    1d82:	0ff7f793          	andi	a5,a5,255
    1d86:	dfe5                	beqz	a5,1d7e <main+0xb8>
    1d88:	00003537          	lui	a0,0x3
    1d8c:	50450513          	addi	a0,a0,1284 # 3504 <usbd_config+0xa8>
    1d90:	21cd                	jal	2272 <puts>
    1d92:	fd0fe0ef          	jal	ra,562 <rcc_compute_sysclk_freq>
    1d96:	85aa                	mv	a1,a0
    1d98:	00003537          	lui	a0,0x3
    1d9c:	51850513          	addi	a0,a0,1304 # 3518 <usbd_config+0xbc>
    1da0:	2e65                	jal	2158 <iprintf>
    1da2:	833fe0ef          	jal	ra,5d4 <rcc_compute_hclk_freq>
    1da6:	85aa                	mv	a1,a0
    1da8:	00003537          	lui	a0,0x3
    1dac:	52450513          	addi	a0,a0,1316 # 3524 <usbd_config+0xc8>
    1db0:	2665                	jal	2158 <iprintf>
    1db2:	849fe0ef          	jal	ra,5fa <rcc_compute_pclk1_freq>
    1db6:	85aa                	mv	a1,a0
    1db8:	00003537          	lui	a0,0x3
    1dbc:	53050513          	addi	a0,a0,1328 # 3530 <usbd_config+0xd4>
    1dc0:	2e61                	jal	2158 <iprintf>
    1dc2:	85ffe0ef          	jal	ra,620 <rcc_compute_pclk2_freq>
    1dc6:	85aa                	mv	a1,a0
    1dc8:	00003537          	lui	a0,0x3
    1dcc:	53c50513          	addi	a0,a0,1340 # 353c <usbd_config+0xe0>
    1dd0:	2661                	jal	2158 <iprintf>
    1dd2:	877fe0ef          	jal	ra,648 <rcc_compute_adcclk>
    1dd6:	85aa                	mv	a1,a0
    1dd8:	00003537          	lui	a0,0x3
    1ddc:	54850513          	addi	a0,a0,1352 # 3548 <usbd_config+0xec>
    1de0:	2ea5                	jal	2158 <iprintf>
    1de2:	40013537          	lui	a0,0x40013
    1de6:	45c5                	li	a1,17
    1de8:	87dfe0ef          	jal	ra,664 <spi_init>
    1dec:	400107b7          	lui	a5,0x40010
    1df0:	43d8                	lw	a4,4(a5)
    1df2:	76c5                	lui	a3,0xffff1
    1df4:	16fd                	addi	a3,a3,-1
    1df6:	00176713          	ori	a4,a4,1
    1dfa:	c3d8                	sw	a4,4(a5)
    1dfc:	47d8                	lw	a4,12(a5)
    1dfe:	c9018513          	addi	a0,gp,-880 # 200004f0 <uart1_rx_fifo_i>
    1e02:	8f75                	and	a4,a4,a3
    1e04:	c7d8                	sw	a4,12(a5)
    1e06:	4087a683          	lw	a3,1032(a5) # 40010408 <_eusrstack+0x2000b408>
    1e0a:	0806e693          	ori	a3,a3,128
    1e0e:	40d7a423          	sw	a3,1032(a5)
    1e12:	40c7a683          	lw	a3,1036(a5)
    1e16:	0806e693          	ori	a3,a3,128
    1e1a:	40d7a623          	sw	a3,1036(a5)
    1e1e:	4007a683          	lw	a3,1024(a5)
    1e22:	0806e693          	ori	a3,a3,128
    1e26:	40d7a023          	sw	a3,1024(a5)
    1e2a:	08000693          	li	a3,128
    1e2e:	40d7aa23          	sw	a3,1044(a5)
    1e32:	000027b7          	lui	a5,0x2
    1e36:	ba478793          	addi	a5,a5,-1116 # 1ba4 <on_foc_int>
    1e3a:	84f1a623          	sw	a5,-1972(gp) # 200000ac <exti7_callback>
    1e3e:	e000e7b7          	lui	a5,0xe000e
    1e42:	10d7a223          	sw	a3,260(a5) # e000e104 <_eusrstack+0xc0009104>
    1e46:	a83fe0ef          	jal	ra,8c8 <uart_bytes_available>
    1e4a:	c511                	beqz	a0,1e56 <main+0x190>
    1e4c:	00003537          	lui	a0,0x3
    1e50:	55450513          	addi	a0,a0,1364 # 3554 <usbd_config+0xf8>
    1e54:	2939                	jal	2272 <puts>
    1e56:	f9cff0ef          	jal	ra,15f2 <cdc_bytes_available>
    1e5a:	c511                	beqz	a0,1e66 <main+0x1a0>
    1e5c:	00003537          	lui	a0,0x3
    1e60:	58850513          	addi	a0,a0,1416 # 3588 <usbd_config+0x12c>
    1e64:	2139                	jal	2272 <puts>
    1e66:	698d                	lui	s3,0x3
    1e68:	6a8d                	lui	s5,0x3
    1e6a:	4ac98993          	addi	s3,s3,1196 # 34ac <usbd_config+0x50>
    1e6e:	0e418413          	addi	s0,gp,228 # 20000944 <rtmi_channels>
    1e72:	4d8a8a93          	addi	s5,s5,1240 # 34d8 <usbd_config+0x7c>
    1e76:	f7cff0ef          	jal	ra,15f2 <cdc_bytes_available>
    1e7a:	478d                	li	a5,3
    1e7c:	04a7f863          	bgeu	a5,a0,1ecc <main+0x206>
    1e80:	f8eff0ef          	jal	ra,160e <cdc_peek>
    1e84:	0562                	slli	a0,a0,0x18
    1e86:	8561                	srai	a0,a0,0x18
    1e88:	04055263          	bgez	a0,1ecc <main+0x206>
    1e8c:	0068                	addi	a0,sp,12
    1e8e:	4591                	li	a1,4
    1e90:	fbcff0ef          	jal	ra,164c <cdc_read_bytes>
    1e94:	00e15783          	lhu	a5,14(sp)
    1e98:	00d14503          	lbu	a0,13(sp)
    1e9c:	00879713          	slli	a4,a5,0x8
    1ea0:	83a1                	srli	a5,a5,0x8
    1ea2:	8fd9                	or	a5,a5,a4
    1ea4:	00f11523          	sh	a5,10(sp)
    1ea8:	00c14783          	lbu	a5,12(sp)
    1eac:	07f7f793          	andi	a5,a5,127
    1eb0:	c3e9                	beqz	a5,1f72 <main+0x2ac>
    1eb2:	054d                	addi	a0,a0,19
    1eb4:	0ff57513          	andi	a0,a0,255
    1eb8:	47a9                	li	a5,10
    1eba:	00a7e963          	bltu	a5,a0,1ecc <main+0x206>
    1ebe:	050a                	slli	a0,a0,0x2
    1ec0:	954e                	add	a0,a0,s3
    1ec2:	411c                	lw	a5,0(a0)
    1ec4:	8782                	jr	a5
    1ec6:	00a15503          	lhu	a0,10(sp)
    1eca:	3ee5                	jal	1ac2 <fw_write_rtmi_control>
    1ecc:	f26ff0ef          	jal	ra,15f2 <cdc_bytes_available>
    1ed0:	4785                	li	a5,1
    1ed2:	0ca7f963          	bgeu	a5,a0,1fa4 <main+0x2de>
    1ed6:	f38ff0ef          	jal	ra,160e <cdc_peek>
    1eda:	0562                	slli	a0,a0,0x18
    1edc:	8561                	srai	a0,a0,0x18
    1ede:	0c054363          	bltz	a0,1fa4 <main+0x2de>
    1ee2:	0068                	addi	a0,sp,12
    1ee4:	4589                	li	a1,2
    1ee6:	f66ff0ef          	jal	ra,164c <cdc_read_bytes>
    1eea:	00c14783          	lbu	a5,12(sp)
    1eee:	00d14503          	lbu	a0,13(sp)
    1ef2:	07f7f793          	andi	a5,a5,127
    1ef6:	10078363          	beqz	a5,1ffc <main+0x336>
    1efa:	054d                	addi	a0,a0,19
    1efc:	0ff57513          	andi	a0,a0,255
    1f00:	47a9                	li	a5,10
    1f02:	08a7e263          	bltu	a5,a0,1f86 <main+0x2c0>
    1f06:	050a                	slli	a0,a0,0x2
    1f08:	9556                	add	a0,a0,s5
    1f0a:	411c                	lw	a5,0(a0)
    1f0c:	8782                	jr	a5
    1f0e:	00a15783          	lhu	a5,10(sp)
    1f12:	86f19e23          	sh	a5,-1924(gp) # 200000dc <rtmi_num_samples>
    1f16:	bf5d                	j	1ecc <main+0x206>
    1f18:	00a15783          	lhu	a5,10(sp)
    1f1c:	88f19023          	sh	a5,-1920(gp) # 200000e0 <rtmi_threshold>
    1f20:	b775                	j	1ecc <main+0x206>
    1f22:	00a15783          	lhu	a5,10(sp)
    1f26:	0ef18223          	sb	a5,228(gp) # 20000944 <rtmi_channels>
    1f2a:	b74d                	j	1ecc <main+0x206>
    1f2c:	00a15783          	lhu	a5,10(sp)
    1f30:	00f400a3          	sb	a5,1(s0)
    1f34:	bf61                	j	1ecc <main+0x206>
    1f36:	00a15783          	lhu	a5,10(sp)
    1f3a:	00f40123          	sb	a5,2(s0)
    1f3e:	b779                	j	1ecc <main+0x206>
    1f40:	00a15783          	lhu	a5,10(sp)
    1f44:	00f401a3          	sb	a5,3(s0)
    1f48:	b751                	j	1ecc <main+0x206>
    1f4a:	00a15783          	lhu	a5,10(sp)
    1f4e:	00f40223          	sb	a5,4(s0)
    1f52:	bfad                	j	1ecc <main+0x206>
    1f54:	00a15783          	lhu	a5,10(sp)
    1f58:	00f402a3          	sb	a5,5(s0)
    1f5c:	bf85                	j	1ecc <main+0x206>
    1f5e:	00a15783          	lhu	a5,10(sp)
    1f62:	00f40323          	sb	a5,6(s0)
    1f66:	b79d                	j	1ecc <main+0x206>
    1f68:	00a15783          	lhu	a5,10(sp)
    1f6c:	00f403a3          	sb	a5,7(s0)
    1f70:	bfb1                	j	1ecc <main+0x206>
    1f72:	00a15583          	lhu	a1,10(sp)
    1f76:	08056513          	ori	a0,a0,128
    1f7a:	36a5                	jal	1ae2 <nano_write_reg>
    1f7c:	bf81                	j	1ecc <main+0x206>
    1f7e:	87a1d783          	lhu	a5,-1926(gp) # 200000da <rtmi_control>
    1f82:	00f11523          	sh	a5,10(sp)
    1f86:	57fd                	li	a5,-1
    1f88:	00f10623          	sb	a5,12(sp)
    1f8c:	00b14783          	lbu	a5,11(sp)
    1f90:	00f106a3          	sb	a5,13(sp)
    1f94:	00a14783          	lbu	a5,10(sp)
    1f98:	00f10723          	sb	a5,14(sp)
    1f9c:	458d                	li	a1,3
    1f9e:	0068                	addi	a0,sp,12
    1fa0:	845ff0ef          	jal	ra,17e4 <cdc_write_bytes>
    1fa4:	8781c783          	lbu	a5,-1928(gp) # 200000d8 <cdc_control_line_state>
    1fa8:	ecf487e3          	beq	s1,a5,1e76 <main+0x1b0>
    1fac:	8781c503          	lbu	a0,-1928(gp) # 200000d8 <cdc_control_line_state>
    1fb0:	890d                	andi	a0,a0,3
    1fb2:	d8aff0ef          	jal	ra,153c <cdc_set_serial_state>
    1fb6:	8781c483          	lbu	s1,-1928(gp) # 200000d8 <cdc_control_line_state>
    1fba:	0ff4f493          	andi	s1,s1,255
    1fbe:	bd65                	j	1e76 <main+0x1b0>
    1fc0:	87c1d783          	lhu	a5,-1924(gp) # 200000dc <rtmi_num_samples>
    1fc4:	bf7d                	j	1f82 <main+0x2bc>
    1fc6:	8801d783          	lhu	a5,-1920(gp) # 200000e0 <rtmi_threshold>
    1fca:	bf65                	j	1f82 <main+0x2bc>
    1fcc:	0e41c783          	lbu	a5,228(gp) # 20000944 <rtmi_channels>
    1fd0:	bf4d                	j	1f82 <main+0x2bc>
    1fd2:	00144783          	lbu	a5,1(s0)
    1fd6:	b775                	j	1f82 <main+0x2bc>
    1fd8:	00244783          	lbu	a5,2(s0)
    1fdc:	b75d                	j	1f82 <main+0x2bc>
    1fde:	00344783          	lbu	a5,3(s0)
    1fe2:	b745                	j	1f82 <main+0x2bc>
    1fe4:	00444783          	lbu	a5,4(s0)
    1fe8:	bf69                	j	1f82 <main+0x2bc>
    1fea:	00544783          	lbu	a5,5(s0)
    1fee:	bf51                	j	1f82 <main+0x2bc>
    1ff0:	00644783          	lbu	a5,6(s0)
    1ff4:	b779                	j	1f82 <main+0x2bc>
    1ff6:	00744783          	lbu	a5,7(s0)
    1ffa:	b761                	j	1f82 <main+0x2bc>
    1ffc:	07f57513          	andi	a0,a0,127
    2000:	362d                	jal	1b2a <nano_read_reg>
    2002:	f8000793          	li	a5,-128
    2006:	00f10623          	sb	a5,12(sp)
    200a:	00855793          	srli	a5,a0,0x8
    200e:	00a11523          	sh	a0,10(sp)
    2012:	00f106a3          	sb	a5,13(sp)
    2016:	00a10723          	sb	a0,14(sp)
    201a:	b749                	j	1f9c <main+0x2d6>

0000201c <ADC1_2_IRQHandler>:
    201c:	a001                	j	201c <ADC1_2_IRQHandler>

0000201e <handle_reset>:
    201e:	1ffff197          	auipc	gp,0x1ffff
    2022:	84218193          	addi	gp,gp,-1982 # 20000860 <__global_pointer$>
    2026:	20003117          	auipc	sp,0x20003
    202a:	fda10113          	addi	sp,sp,-38 # 20005000 <_eusrstack>
    202e:	00001517          	auipc	a0,0x1
    2032:	62a50513          	addi	a0,a0,1578 # 3658 <_data_lma>
    2036:	1fffe597          	auipc	a1,0x1fffe
    203a:	fca58593          	addi	a1,a1,-54 # 20000000 <_data_vma>
    203e:	81818613          	addi	a2,gp,-2024 # 20000078 <_edata>
    2042:	00c5fa63          	bgeu	a1,a2,2056 <handle_reset+0x38>
    2046:	00052283          	lw	t0,0(a0)
    204a:	0055a023          	sw	t0,0(a1)
    204e:	0511                	addi	a0,a0,4
    2050:	0591                	addi	a1,a1,4
    2052:	fec5eae3          	bltu	a1,a2,2046 <handle_reset+0x28>
    2056:	81818513          	addi	a0,gp,-2024 # 20000078 <_edata>
    205a:	0f018593          	addi	a1,gp,240 # 20000950 <_ebss>
    205e:	00b57763          	bgeu	a0,a1,206c <handle_reset+0x4e>
    2062:	00052023          	sw	zero,0(a0)
    2066:	0511                	addi	a0,a0,4
    2068:	feb56de3          	bltu	a0,a1,2062 <handle_reset+0x44>
    206c:	42fd                	li	t0,31
    206e:	bc029073          	csrw	0xbc0,t0
    2072:	428d                	li	t0,3
    2074:	80429073          	csrw	0x804,t0
    2078:	08800293          	li	t0,136
    207c:	30029073          	csrw	mstatus,t0
    2080:	ffffe297          	auipc	t0,0xffffe
    2084:	f8428293          	addi	t0,t0,-124 # 4 <_einit>
    2088:	0032e293          	ori	t0,t0,3
    208c:	30529073          	csrw	mtvec,t0
    2090:	c2cfe0ef          	jal	ra,4bc <rcc_system_init>
    2094:	00000297          	auipc	t0,0x0
    2098:	c3228293          	addi	t0,t0,-974 # 1cc6 <main>
    209c:	34129073          	csrw	mepc,t0
    20a0:	30200073          	mret

000020a4 <delay_init>:
    20a4:	1141                	addi	sp,sp,-16
    20a6:	c606                	sw	ra,12(sp)
    20a8:	d2cfe0ef          	jal	ra,5d4 <rcc_compute_hclk_freq>
    20ac:	007a17b7          	lui	a5,0x7a1
    20b0:	20078793          	addi	a5,a5,512 # 7a1200 <_data_lma+0x79dba8>
    20b4:	02f55533          	divu	a0,a0,a5
    20b8:	40b2                	lw	ra,12(sp)
    20ba:	0ff57513          	andi	a0,a0,255
    20be:	88a18323          	sb	a0,-1914(gp) # 200000e6 <p_us>
    20c2:	3e800793          	li	a5,1000
    20c6:	02f50533          	mul	a0,a0,a5
    20ca:	88a19223          	sh	a0,-1916(gp) # 200000e4 <p_ms>
    20ce:	0141                	addi	sp,sp,16
    20d0:	8082                	ret

000020d2 <delay_us>:
    20d2:	e000f7b7          	lui	a5,0xe000f
    20d6:	43d8                	lw	a4,4(a5)
    20d8:	4681                	li	a3,0
    20da:	9b79                	andi	a4,a4,-2
    20dc:	c3d8                	sw	a4,4(a5)
    20de:	8861c703          	lbu	a4,-1914(gp) # 200000e6 <p_us>
    20e2:	02a70633          	mul	a2,a4,a0
    20e6:	cb90                	sw	a2,16(a5)
    20e8:	cbd4                	sw	a3,20(a5)
    20ea:	4398                	lw	a4,0(a5)
    20ec:	01076713          	ori	a4,a4,16
    20f0:	c398                	sw	a4,0(a5)
    20f2:	4398                	lw	a4,0(a5)
    20f4:	02176713          	ori	a4,a4,33
    20f8:	c398                	sw	a4,0(a5)
    20fa:	43d8                	lw	a4,4(a5)
    20fc:	8b05                	andi	a4,a4,1
    20fe:	df75                	beqz	a4,20fa <delay_us+0x28>
    2100:	4398                	lw	a4,0(a5)
    2102:	9b79                	andi	a4,a4,-2
    2104:	c398                	sw	a4,0(a5)
    2106:	8082                	ret

00002108 <_write>:
    2108:	1141                	addi	sp,sp,-16
    210a:	c422                	sw	s0,8(sp)
    210c:	01061693          	slli	a3,a2,0x10
    2110:	8432                	mv	s0,a2
    2112:	40014537          	lui	a0,0x40014
    2116:	862e                	mv	a2,a1
    2118:	80050513          	addi	a0,a0,-2048 # 40013800 <_eusrstack+0x2000e800>
    211c:	82c1                	srli	a3,a3,0x10
    211e:	0a018593          	addi	a1,gp,160 # 20000900 <uart1_tx_fifo_i>
    2122:	c606                	sw	ra,12(sp)
    2124:	faafe0ef          	jal	ra,8ce <uart_write_bytes>
    2128:	8522                	mv	a0,s0
    212a:	40b2                	lw	ra,12(sp)
    212c:	4422                	lw	s0,8(sp)
    212e:	0141                	addi	sp,sp,16
    2130:	8082                	ret

00002132 <_sbrk>:
    2132:	80818713          	addi	a4,gp,-2040 # 20000068 <curbrk.3349>
    2136:	431c                	lw	a5,0(a4)
    2138:	0f018693          	addi	a3,gp,240 # 20000950 <_ebss>
    213c:	953e                	add	a0,a0,a5
    213e:	00d56b63          	bltu	a0,a3,2154 <_sbrk+0x22>
    2142:	200056b7          	lui	a3,0x20005
    2146:	80068693          	addi	a3,a3,-2048 # 20004800 <_heap_end>
    214a:	00a6e563          	bltu	a3,a0,2154 <_sbrk+0x22>
    214e:	c308                	sw	a0,0(a4)
    2150:	853e                	mv	a0,a5
    2152:	8082                	ret
    2154:	57fd                	li	a5,-1
    2156:	bfed                	j	2150 <_sbrk+0x1e>

00002158 <iprintf>:
    2158:	7139                	addi	sp,sp,-64
    215a:	da3e                	sw	a5,52(sp)
    215c:	d22e                	sw	a1,36(sp)
    215e:	d432                	sw	a2,40(sp)
    2160:	d636                	sw	a3,44(sp)
    2162:	d83a                	sw	a4,48(sp)
    2164:	dc42                	sw	a6,56(sp)
    2166:	de46                	sw	a7,60(sp)
    2168:	80c18793          	addi	a5,gp,-2036 # 2000006c <_impure_ptr>
    216c:	cc22                	sw	s0,24(sp)
    216e:	4380                	lw	s0,0(a5)
    2170:	ca26                	sw	s1,20(sp)
    2172:	ce06                	sw	ra,28(sp)
    2174:	84aa                	mv	s1,a0
    2176:	c409                	beqz	s0,2180 <iprintf+0x28>
    2178:	4c1c                	lw	a5,24(s0)
    217a:	e399                	bnez	a5,2180 <iprintf+0x28>
    217c:	8522                	mv	a0,s0
    217e:	2315                	jal	26a2 <__sinit>
    2180:	440c                	lw	a1,8(s0)
    2182:	1054                	addi	a3,sp,36
    2184:	8626                	mv	a2,s1
    2186:	8522                	mv	a0,s0
    2188:	c636                	sw	a3,12(sp)
    218a:	167000ef          	jal	ra,2af0 <_vfiprintf_r>
    218e:	40f2                	lw	ra,28(sp)
    2190:	4462                	lw	s0,24(sp)
    2192:	44d2                	lw	s1,20(sp)
    2194:	6121                	addi	sp,sp,64
    2196:	8082                	ret

00002198 <_puts_r>:
    2198:	1101                	addi	sp,sp,-32
    219a:	ca26                	sw	s1,20(sp)
    219c:	c84a                	sw	s2,16(sp)
    219e:	ce06                	sw	ra,28(sp)
    21a0:	cc22                	sw	s0,24(sp)
    21a2:	c64e                	sw	s3,12(sp)
    21a4:	c452                	sw	s4,8(sp)
    21a6:	84aa                	mv	s1,a0
    21a8:	892e                	mv	s2,a1
    21aa:	c501                	beqz	a0,21b2 <_puts_r+0x1a>
    21ac:	4d1c                	lw	a5,24(a0)
    21ae:	e391                	bnez	a5,21b2 <_puts_r+0x1a>
    21b0:	29cd                	jal	26a2 <__sinit>
    21b2:	4c9c                	lw	a5,24(s1)
    21b4:	4480                	lw	s0,8(s1)
    21b6:	e399                	bnez	a5,21bc <_puts_r+0x24>
    21b8:	8526                	mv	a0,s1
    21ba:	21e5                	jal	26a2 <__sinit>
    21bc:	00001797          	auipc	a5,0x1
    21c0:	42078793          	addi	a5,a5,1056 # 35dc <__sf_fake_stdin>
    21c4:	02f41c63          	bne	s0,a5,21fc <_puts_r+0x64>
    21c8:	40c0                	lw	s0,4(s1)
    21ca:	00c45783          	lhu	a5,12(s0)
    21ce:	8ba1                	andi	a5,a5,8
    21d0:	c7b1                	beqz	a5,221c <_puts_r+0x84>
    21d2:	481c                	lw	a5,16(s0)
    21d4:	c7a1                	beqz	a5,221c <_puts_r+0x84>
    21d6:	59fd                	li	s3,-1
    21d8:	4a29                	li	s4,10
    21da:	441c                	lw	a5,8(s0)
    21dc:	00094583          	lbu	a1,0(s2)
    21e0:	17fd                	addi	a5,a5,-1
    21e2:	e9b1                	bnez	a1,2236 <_puts_r+0x9e>
    21e4:	c41c                	sw	a5,8(s0)
    21e6:	0607de63          	bgez	a5,2262 <_puts_r+0xca>
    21ea:	8622                	mv	a2,s0
    21ec:	45a9                	li	a1,10
    21ee:	8526                	mv	a0,s1
    21f0:	2071                	jal	227c <__swbuf_r>
    21f2:	57fd                	li	a5,-1
    21f4:	02f50863          	beq	a0,a5,2224 <_puts_r+0x8c>
    21f8:	4529                	li	a0,10
    21fa:	a035                	j	2226 <_puts_r+0x8e>
    21fc:	00001797          	auipc	a5,0x1
    2200:	40078793          	addi	a5,a5,1024 # 35fc <__sf_fake_stdout>
    2204:	00f41463          	bne	s0,a5,220c <_puts_r+0x74>
    2208:	4480                	lw	s0,8(s1)
    220a:	b7c1                	j	21ca <_puts_r+0x32>
    220c:	00001797          	auipc	a5,0x1
    2210:	3b078793          	addi	a5,a5,944 # 35bc <__sf_fake_stderr>
    2214:	faf41be3          	bne	s0,a5,21ca <_puts_r+0x32>
    2218:	44c0                	lw	s0,12(s1)
    221a:	bf45                	j	21ca <_puts_r+0x32>
    221c:	85a2                	mv	a1,s0
    221e:	8526                	mv	a0,s1
    2220:	2a31                	jal	233c <__swsetup_r>
    2222:	d955                	beqz	a0,21d6 <_puts_r+0x3e>
    2224:	557d                	li	a0,-1
    2226:	40f2                	lw	ra,28(sp)
    2228:	4462                	lw	s0,24(sp)
    222a:	44d2                	lw	s1,20(sp)
    222c:	4942                	lw	s2,16(sp)
    222e:	49b2                	lw	s3,12(sp)
    2230:	4a22                	lw	s4,8(sp)
    2232:	6105                	addi	sp,sp,32
    2234:	8082                	ret
    2236:	c41c                	sw	a5,8(s0)
    2238:	0905                	addi	s2,s2,1
    223a:	0007d763          	bgez	a5,2248 <_puts_r+0xb0>
    223e:	4c18                	lw	a4,24(s0)
    2240:	00e7cb63          	blt	a5,a4,2256 <_puts_r+0xbe>
    2244:	01458963          	beq	a1,s4,2256 <_puts_r+0xbe>
    2248:	401c                	lw	a5,0(s0)
    224a:	00178713          	addi	a4,a5,1
    224e:	c018                	sw	a4,0(s0)
    2250:	00b78023          	sb	a1,0(a5)
    2254:	b759                	j	21da <_puts_r+0x42>
    2256:	8622                	mv	a2,s0
    2258:	8526                	mv	a0,s1
    225a:	200d                	jal	227c <__swbuf_r>
    225c:	f7351fe3          	bne	a0,s3,21da <_puts_r+0x42>
    2260:	b7d1                	j	2224 <_puts_r+0x8c>
    2262:	401c                	lw	a5,0(s0)
    2264:	00178713          	addi	a4,a5,1
    2268:	c018                	sw	a4,0(s0)
    226a:	4729                	li	a4,10
    226c:	00e78023          	sb	a4,0(a5)
    2270:	b761                	j	21f8 <_puts_r+0x60>

00002272 <puts>:
    2272:	80c18793          	addi	a5,gp,-2036 # 2000006c <_impure_ptr>
    2276:	85aa                	mv	a1,a0
    2278:	4388                	lw	a0,0(a5)
    227a:	bf39                	j	2198 <_puts_r>

0000227c <__swbuf_r>:
    227c:	1101                	addi	sp,sp,-32
    227e:	cc22                	sw	s0,24(sp)
    2280:	ca26                	sw	s1,20(sp)
    2282:	c84a                	sw	s2,16(sp)
    2284:	ce06                	sw	ra,28(sp)
    2286:	c64e                	sw	s3,12(sp)
    2288:	84aa                	mv	s1,a0
    228a:	892e                	mv	s2,a1
    228c:	8432                	mv	s0,a2
    228e:	c501                	beqz	a0,2296 <__swbuf_r+0x1a>
    2290:	4d1c                	lw	a5,24(a0)
    2292:	e391                	bnez	a5,2296 <__swbuf_r+0x1a>
    2294:	2139                	jal	26a2 <__sinit>
    2296:	00001797          	auipc	a5,0x1
    229a:	34678793          	addi	a5,a5,838 # 35dc <__sf_fake_stdin>
    229e:	06f41963          	bne	s0,a5,2310 <__swbuf_r+0x94>
    22a2:	40c0                	lw	s0,4(s1)
    22a4:	4c1c                	lw	a5,24(s0)
    22a6:	c41c                	sw	a5,8(s0)
    22a8:	00c45783          	lhu	a5,12(s0)
    22ac:	8ba1                	andi	a5,a5,8
    22ae:	c3c9                	beqz	a5,2330 <__swbuf_r+0xb4>
    22b0:	481c                	lw	a5,16(s0)
    22b2:	cfbd                	beqz	a5,2330 <__swbuf_r+0xb4>
    22b4:	481c                	lw	a5,16(s0)
    22b6:	4008                	lw	a0,0(s0)
    22b8:	0ff97993          	andi	s3,s2,255
    22bc:	0ff97913          	andi	s2,s2,255
    22c0:	8d1d                	sub	a0,a0,a5
    22c2:	485c                	lw	a5,20(s0)
    22c4:	00f54663          	blt	a0,a5,22d0 <__swbuf_r+0x54>
    22c8:	85a2                	mv	a1,s0
    22ca:	8526                	mv	a0,s1
    22cc:	2c65                	jal	2584 <_fflush_r>
    22ce:	e52d                	bnez	a0,2338 <__swbuf_r+0xbc>
    22d0:	441c                	lw	a5,8(s0)
    22d2:	0505                	addi	a0,a0,1
    22d4:	17fd                	addi	a5,a5,-1
    22d6:	c41c                	sw	a5,8(s0)
    22d8:	401c                	lw	a5,0(s0)
    22da:	00178713          	addi	a4,a5,1
    22de:	c018                	sw	a4,0(s0)
    22e0:	01378023          	sb	s3,0(a5)
    22e4:	485c                	lw	a5,20(s0)
    22e6:	00a78963          	beq	a5,a0,22f8 <__swbuf_r+0x7c>
    22ea:	00c45783          	lhu	a5,12(s0)
    22ee:	8b85                	andi	a5,a5,1
    22f0:	cb81                	beqz	a5,2300 <__swbuf_r+0x84>
    22f2:	47a9                	li	a5,10
    22f4:	00f91663          	bne	s2,a5,2300 <__swbuf_r+0x84>
    22f8:	85a2                	mv	a1,s0
    22fa:	8526                	mv	a0,s1
    22fc:	2461                	jal	2584 <_fflush_r>
    22fe:	ed0d                	bnez	a0,2338 <__swbuf_r+0xbc>
    2300:	40f2                	lw	ra,28(sp)
    2302:	4462                	lw	s0,24(sp)
    2304:	854a                	mv	a0,s2
    2306:	44d2                	lw	s1,20(sp)
    2308:	4942                	lw	s2,16(sp)
    230a:	49b2                	lw	s3,12(sp)
    230c:	6105                	addi	sp,sp,32
    230e:	8082                	ret
    2310:	00001797          	auipc	a5,0x1
    2314:	2ec78793          	addi	a5,a5,748 # 35fc <__sf_fake_stdout>
    2318:	00f41463          	bne	s0,a5,2320 <__swbuf_r+0xa4>
    231c:	4480                	lw	s0,8(s1)
    231e:	b759                	j	22a4 <__swbuf_r+0x28>
    2320:	00001797          	auipc	a5,0x1
    2324:	29c78793          	addi	a5,a5,668 # 35bc <__sf_fake_stderr>
    2328:	f6f41ee3          	bne	s0,a5,22a4 <__swbuf_r+0x28>
    232c:	44c0                	lw	s0,12(s1)
    232e:	bf9d                	j	22a4 <__swbuf_r+0x28>
    2330:	85a2                	mv	a1,s0
    2332:	8526                	mv	a0,s1
    2334:	2021                	jal	233c <__swsetup_r>
    2336:	dd3d                	beqz	a0,22b4 <__swbuf_r+0x38>
    2338:	597d                	li	s2,-1
    233a:	b7d9                	j	2300 <__swbuf_r+0x84>

0000233c <__swsetup_r>:
    233c:	1141                	addi	sp,sp,-16
    233e:	80c18793          	addi	a5,gp,-2036 # 2000006c <_impure_ptr>
    2342:	c226                	sw	s1,4(sp)
    2344:	4384                	lw	s1,0(a5)
    2346:	c422                	sw	s0,8(sp)
    2348:	c04a                	sw	s2,0(sp)
    234a:	c606                	sw	ra,12(sp)
    234c:	892a                	mv	s2,a0
    234e:	842e                	mv	s0,a1
    2350:	c489                	beqz	s1,235a <__swsetup_r+0x1e>
    2352:	4c9c                	lw	a5,24(s1)
    2354:	e399                	bnez	a5,235a <__swsetup_r+0x1e>
    2356:	8526                	mv	a0,s1
    2358:	26a9                	jal	26a2 <__sinit>
    235a:	00001797          	auipc	a5,0x1
    235e:	28278793          	addi	a5,a5,642 # 35dc <__sf_fake_stdin>
    2362:	02f41c63          	bne	s0,a5,239a <__swsetup_r+0x5e>
    2366:	40c0                	lw	s0,4(s1)
    2368:	00c41703          	lh	a4,12(s0)
    236c:	01071793          	slli	a5,a4,0x10
    2370:	83c1                	srli	a5,a5,0x10
    2372:	0087f693          	andi	a3,a5,8
    2376:	eeb5                	bnez	a3,23f2 <__swsetup_r+0xb6>
    2378:	0107f693          	andi	a3,a5,16
    237c:	ee9d                	bnez	a3,23ba <__swsetup_r+0x7e>
    237e:	47a5                	li	a5,9
    2380:	00f92023          	sw	a5,0(s2)
    2384:	04076713          	ori	a4,a4,64
    2388:	00e41623          	sh	a4,12(s0)
    238c:	557d                	li	a0,-1
    238e:	40b2                	lw	ra,12(sp)
    2390:	4422                	lw	s0,8(sp)
    2392:	4492                	lw	s1,4(sp)
    2394:	4902                	lw	s2,0(sp)
    2396:	0141                	addi	sp,sp,16
    2398:	8082                	ret
    239a:	00001797          	auipc	a5,0x1
    239e:	26278793          	addi	a5,a5,610 # 35fc <__sf_fake_stdout>
    23a2:	00f41463          	bne	s0,a5,23aa <__swsetup_r+0x6e>
    23a6:	4480                	lw	s0,8(s1)
    23a8:	b7c1                	j	2368 <__swsetup_r+0x2c>
    23aa:	00001797          	auipc	a5,0x1
    23ae:	21278793          	addi	a5,a5,530 # 35bc <__sf_fake_stderr>
    23b2:	faf41be3          	bne	s0,a5,2368 <__swsetup_r+0x2c>
    23b6:	44c0                	lw	s0,12(s1)
    23b8:	bf45                	j	2368 <__swsetup_r+0x2c>
    23ba:	8b91                	andi	a5,a5,4
    23bc:	c78d                	beqz	a5,23e6 <__swsetup_r+0xaa>
    23be:	584c                	lw	a1,52(s0)
    23c0:	c989                	beqz	a1,23d2 <__swsetup_r+0x96>
    23c2:	04440793          	addi	a5,s0,68
    23c6:	00f58463          	beq	a1,a5,23ce <__swsetup_r+0x92>
    23ca:	854a                	mv	a0,s2
    23cc:	2b35                	jal	2908 <_free_r>
    23ce:	02042a23          	sw	zero,52(s0)
    23d2:	00c45783          	lhu	a5,12(s0)
    23d6:	00042223          	sw	zero,4(s0)
    23da:	fdb7f793          	andi	a5,a5,-37
    23de:	00f41623          	sh	a5,12(s0)
    23e2:	481c                	lw	a5,16(s0)
    23e4:	c01c                	sw	a5,0(s0)
    23e6:	00c45783          	lhu	a5,12(s0)
    23ea:	0087e793          	ori	a5,a5,8
    23ee:	00f41623          	sh	a5,12(s0)
    23f2:	481c                	lw	a5,16(s0)
    23f4:	ef81                	bnez	a5,240c <__swsetup_r+0xd0>
    23f6:	00c45783          	lhu	a5,12(s0)
    23fa:	20000713          	li	a4,512
    23fe:	2807f793          	andi	a5,a5,640
    2402:	00e78563          	beq	a5,a4,240c <__swsetup_r+0xd0>
    2406:	85a2                	mv	a1,s0
    2408:	854a                	mv	a0,s2
    240a:	2185                	jal	286a <__smakebuf_r>
    240c:	00c45783          	lhu	a5,12(s0)
    2410:	0017f713          	andi	a4,a5,1
    2414:	c705                	beqz	a4,243c <__swsetup_r+0x100>
    2416:	485c                	lw	a5,20(s0)
    2418:	00042423          	sw	zero,8(s0)
    241c:	40f007b3          	neg	a5,a5
    2420:	cc1c                	sw	a5,24(s0)
    2422:	481c                	lw	a5,16(s0)
    2424:	4501                	li	a0,0
    2426:	f7a5                	bnez	a5,238e <__swsetup_r+0x52>
    2428:	00c41783          	lh	a5,12(s0)
    242c:	0807f713          	andi	a4,a5,128
    2430:	df39                	beqz	a4,238e <__swsetup_r+0x52>
    2432:	0407e793          	ori	a5,a5,64
    2436:	00f41623          	sh	a5,12(s0)
    243a:	bf89                	j	238c <__swsetup_r+0x50>
    243c:	8b89                	andi	a5,a5,2
    243e:	4701                	li	a4,0
    2440:	e391                	bnez	a5,2444 <__swsetup_r+0x108>
    2442:	4858                	lw	a4,20(s0)
    2444:	c418                	sw	a4,8(s0)
    2446:	bff1                	j	2422 <__swsetup_r+0xe6>

00002448 <__sflush_r>:
    2448:	00c5d783          	lhu	a5,12(a1)
    244c:	1101                	addi	sp,sp,-32
    244e:	cc22                	sw	s0,24(sp)
    2450:	ca26                	sw	s1,20(sp)
    2452:	ce06                	sw	ra,28(sp)
    2454:	c84a                	sw	s2,16(sp)
    2456:	c64e                	sw	s3,12(sp)
    2458:	0087f713          	andi	a4,a5,8
    245c:	84aa                	mv	s1,a0
    245e:	842e                	mv	s0,a1
    2460:	ef71                	bnez	a4,253c <__sflush_r+0xf4>
    2462:	41d8                	lw	a4,4(a1)
    2464:	00e04d63          	bgtz	a4,247e <__sflush_r+0x36>
    2468:	41b8                	lw	a4,64(a1)
    246a:	00e04a63          	bgtz	a4,247e <__sflush_r+0x36>
    246e:	4501                	li	a0,0
    2470:	40f2                	lw	ra,28(sp)
    2472:	4462                	lw	s0,24(sp)
    2474:	44d2                	lw	s1,20(sp)
    2476:	4942                	lw	s2,16(sp)
    2478:	49b2                	lw	s3,12(sp)
    247a:	6105                	addi	sp,sp,32
    247c:	8082                	ret
    247e:	5458                	lw	a4,44(s0)
    2480:	d77d                	beqz	a4,246e <__sflush_r+0x26>
    2482:	0004a903          	lw	s2,0(s1) # 8000 <_data_lma+0x49a8>
    2486:	01379693          	slli	a3,a5,0x13
    248a:	0004a023          	sw	zero,0(s1)
    248e:	0606dd63          	bgez	a3,2508 <__sflush_r+0xc0>
    2492:	4870                	lw	a2,84(s0)
    2494:	00c45783          	lhu	a5,12(s0)
    2498:	8b91                	andi	a5,a5,4
    249a:	c799                	beqz	a5,24a8 <__sflush_r+0x60>
    249c:	405c                	lw	a5,4(s0)
    249e:	8e1d                	sub	a2,a2,a5
    24a0:	585c                	lw	a5,52(s0)
    24a2:	c399                	beqz	a5,24a8 <__sflush_r+0x60>
    24a4:	403c                	lw	a5,64(s0)
    24a6:	8e1d                	sub	a2,a2,a5
    24a8:	545c                	lw	a5,44(s0)
    24aa:	500c                	lw	a1,32(s0)
    24ac:	4681                	li	a3,0
    24ae:	8526                	mv	a0,s1
    24b0:	9782                	jalr	a5
    24b2:	57fd                	li	a5,-1
    24b4:	00c45703          	lhu	a4,12(s0)
    24b8:	00f51d63          	bne	a0,a5,24d2 <__sflush_r+0x8a>
    24bc:	4094                	lw	a3,0(s1)
    24be:	47f5                	li	a5,29
    24c0:	06d7e863          	bltu	a5,a3,2530 <__sflush_r+0xe8>
    24c4:	204007b7          	lui	a5,0x20400
    24c8:	0785                	addi	a5,a5,1
    24ca:	00d7d7b3          	srl	a5,a5,a3
    24ce:	8b85                	andi	a5,a5,1
    24d0:	c3a5                	beqz	a5,2530 <__sflush_r+0xe8>
    24d2:	481c                	lw	a5,16(s0)
    24d4:	00042223          	sw	zero,4(s0)
    24d8:	c01c                	sw	a5,0(s0)
    24da:	01371793          	slli	a5,a4,0x13
    24de:	0007d863          	bgez	a5,24ee <__sflush_r+0xa6>
    24e2:	57fd                	li	a5,-1
    24e4:	00f51463          	bne	a0,a5,24ec <__sflush_r+0xa4>
    24e8:	409c                	lw	a5,0(s1)
    24ea:	e391                	bnez	a5,24ee <__sflush_r+0xa6>
    24ec:	c868                	sw	a0,84(s0)
    24ee:	584c                	lw	a1,52(s0)
    24f0:	0124a023          	sw	s2,0(s1)
    24f4:	ddad                	beqz	a1,246e <__sflush_r+0x26>
    24f6:	04440793          	addi	a5,s0,68
    24fa:	00f58463          	beq	a1,a5,2502 <__sflush_r+0xba>
    24fe:	8526                	mv	a0,s1
    2500:	2121                	jal	2908 <_free_r>
    2502:	02042a23          	sw	zero,52(s0)
    2506:	b7a5                	j	246e <__sflush_r+0x26>
    2508:	500c                	lw	a1,32(s0)
    250a:	4601                	li	a2,0
    250c:	4685                	li	a3,1
    250e:	8526                	mv	a0,s1
    2510:	9702                	jalr	a4
    2512:	57fd                	li	a5,-1
    2514:	862a                	mv	a2,a0
    2516:	f6f51fe3          	bne	a0,a5,2494 <__sflush_r+0x4c>
    251a:	409c                	lw	a5,0(s1)
    251c:	dfa5                	beqz	a5,2494 <__sflush_r+0x4c>
    251e:	4775                	li	a4,29
    2520:	00e78563          	beq	a5,a4,252a <__sflush_r+0xe2>
    2524:	4759                	li	a4,22
    2526:	04e79463          	bne	a5,a4,256e <__sflush_r+0x126>
    252a:	0124a023          	sw	s2,0(s1)
    252e:	b781                	j	246e <__sflush_r+0x26>
    2530:	04076713          	ori	a4,a4,64
    2534:	00e41623          	sh	a4,12(s0)
    2538:	557d                	li	a0,-1
    253a:	bf1d                	j	2470 <__sflush_r+0x28>
    253c:	0105a983          	lw	s3,16(a1)
    2540:	f20987e3          	beqz	s3,246e <__sflush_r+0x26>
    2544:	0005a903          	lw	s2,0(a1)
    2548:	8b8d                	andi	a5,a5,3
    254a:	0135a023          	sw	s3,0(a1)
    254e:	41390933          	sub	s2,s2,s3
    2552:	4701                	li	a4,0
    2554:	e391                	bnez	a5,2558 <__sflush_r+0x110>
    2556:	49d8                	lw	a4,20(a1)
    2558:	c418                	sw	a4,8(s0)
    255a:	f1205ae3          	blez	s2,246e <__sflush_r+0x26>
    255e:	541c                	lw	a5,40(s0)
    2560:	500c                	lw	a1,32(s0)
    2562:	86ca                	mv	a3,s2
    2564:	864e                	mv	a2,s3
    2566:	8526                	mv	a0,s1
    2568:	9782                	jalr	a5
    256a:	00a04963          	bgtz	a0,257c <__sflush_r+0x134>
    256e:	00c45783          	lhu	a5,12(s0)
    2572:	0407e793          	ori	a5,a5,64
    2576:	00f41623          	sh	a5,12(s0)
    257a:	bf7d                	j	2538 <__sflush_r+0xf0>
    257c:	99aa                	add	s3,s3,a0
    257e:	40a90933          	sub	s2,s2,a0
    2582:	bfe1                	j	255a <__sflush_r+0x112>

00002584 <_fflush_r>:
    2584:	499c                	lw	a5,16(a1)
    2586:	cfb9                	beqz	a5,25e4 <_fflush_r+0x60>
    2588:	1101                	addi	sp,sp,-32
    258a:	cc22                	sw	s0,24(sp)
    258c:	ce06                	sw	ra,28(sp)
    258e:	842a                	mv	s0,a0
    2590:	c511                	beqz	a0,259c <_fflush_r+0x18>
    2592:	4d1c                	lw	a5,24(a0)
    2594:	e781                	bnez	a5,259c <_fflush_r+0x18>
    2596:	c62e                	sw	a1,12(sp)
    2598:	2229                	jal	26a2 <__sinit>
    259a:	45b2                	lw	a1,12(sp)
    259c:	00001797          	auipc	a5,0x1
    25a0:	04078793          	addi	a5,a5,64 # 35dc <__sf_fake_stdin>
    25a4:	00f59b63          	bne	a1,a5,25ba <_fflush_r+0x36>
    25a8:	404c                	lw	a1,4(s0)
    25aa:	00c59783          	lh	a5,12(a1)
    25ae:	c795                	beqz	a5,25da <_fflush_r+0x56>
    25b0:	8522                	mv	a0,s0
    25b2:	4462                	lw	s0,24(sp)
    25b4:	40f2                	lw	ra,28(sp)
    25b6:	6105                	addi	sp,sp,32
    25b8:	bd41                	j	2448 <__sflush_r>
    25ba:	00001797          	auipc	a5,0x1
    25be:	04278793          	addi	a5,a5,66 # 35fc <__sf_fake_stdout>
    25c2:	00f59463          	bne	a1,a5,25ca <_fflush_r+0x46>
    25c6:	440c                	lw	a1,8(s0)
    25c8:	b7cd                	j	25aa <_fflush_r+0x26>
    25ca:	00001797          	auipc	a5,0x1
    25ce:	ff278793          	addi	a5,a5,-14 # 35bc <__sf_fake_stderr>
    25d2:	fcf59ce3          	bne	a1,a5,25aa <_fflush_r+0x26>
    25d6:	444c                	lw	a1,12(s0)
    25d8:	bfc9                	j	25aa <_fflush_r+0x26>
    25da:	40f2                	lw	ra,28(sp)
    25dc:	4462                	lw	s0,24(sp)
    25de:	4501                	li	a0,0
    25e0:	6105                	addi	sp,sp,32
    25e2:	8082                	ret
    25e4:	4501                	li	a0,0
    25e6:	8082                	ret

000025e8 <std>:
    25e8:	1141                	addi	sp,sp,-16
    25ea:	c422                	sw	s0,8(sp)
    25ec:	c606                	sw	ra,12(sp)
    25ee:	842a                	mv	s0,a0
    25f0:	00b51623          	sh	a1,12(a0)
    25f4:	00c51723          	sh	a2,14(a0)
    25f8:	00052023          	sw	zero,0(a0)
    25fc:	00052223          	sw	zero,4(a0)
    2600:	00052423          	sw	zero,8(a0)
    2604:	06052223          	sw	zero,100(a0)
    2608:	00052823          	sw	zero,16(a0)
    260c:	00052a23          	sw	zero,20(a0)
    2610:	00052c23          	sw	zero,24(a0)
    2614:	4621                	li	a2,8
    2616:	4581                	li	a1,0
    2618:	05c50513          	addi	a0,a0,92
    261c:	ae5fd0ef          	jal	ra,100 <memset>
    2620:	00001797          	auipc	a5,0x1
    2624:	b4878793          	addi	a5,a5,-1208 # 3168 <__sread>
    2628:	d05c                	sw	a5,36(s0)
    262a:	00001797          	auipc	a5,0x1
    262e:	b6e78793          	addi	a5,a5,-1170 # 3198 <__swrite>
    2632:	d41c                	sw	a5,40(s0)
    2634:	00001797          	auipc	a5,0x1
    2638:	bb278793          	addi	a5,a5,-1102 # 31e6 <__sseek>
    263c:	d45c                	sw	a5,44(s0)
    263e:	00001797          	auipc	a5,0x1
    2642:	bde78793          	addi	a5,a5,-1058 # 321c <__sclose>
    2646:	d000                	sw	s0,32(s0)
    2648:	d81c                	sw	a5,48(s0)
    264a:	40b2                	lw	ra,12(sp)
    264c:	4422                	lw	s0,8(sp)
    264e:	0141                	addi	sp,sp,16
    2650:	8082                	ret

00002652 <_cleanup_r>:
    2652:	00000597          	auipc	a1,0x0
    2656:	f3258593          	addi	a1,a1,-206 # 2584 <_fflush_r>
    265a:	a2a9                	j	27a4 <_fwalk_reent>

0000265c <__sfmoreglue>:
    265c:	1141                	addi	sp,sp,-16
    265e:	c226                	sw	s1,4(sp)
    2660:	06800613          	li	a2,104
    2664:	fff58493          	addi	s1,a1,-1
    2668:	02c484b3          	mul	s1,s1,a2
    266c:	c04a                	sw	s2,0(sp)
    266e:	892e                	mv	s2,a1
    2670:	c422                	sw	s0,8(sp)
    2672:	c606                	sw	ra,12(sp)
    2674:	07448593          	addi	a1,s1,116
    2678:	2e25                	jal	29b0 <_malloc_r>
    267a:	842a                	mv	s0,a0
    267c:	cd01                	beqz	a0,2694 <__sfmoreglue+0x38>
    267e:	00052023          	sw	zero,0(a0)
    2682:	01252223          	sw	s2,4(a0)
    2686:	0531                	addi	a0,a0,12
    2688:	c408                	sw	a0,8(s0)
    268a:	06848613          	addi	a2,s1,104
    268e:	4581                	li	a1,0
    2690:	a71fd0ef          	jal	ra,100 <memset>
    2694:	8522                	mv	a0,s0
    2696:	40b2                	lw	ra,12(sp)
    2698:	4422                	lw	s0,8(sp)
    269a:	4492                	lw	s1,4(sp)
    269c:	4902                	lw	s2,0(sp)
    269e:	0141                	addi	sp,sp,16
    26a0:	8082                	ret

000026a2 <__sinit>:
    26a2:	4d1c                	lw	a5,24(a0)
    26a4:	e3ad                	bnez	a5,2706 <__sinit+0x64>
    26a6:	1141                	addi	sp,sp,-16
    26a8:	c606                	sw	ra,12(sp)
    26aa:	c422                	sw	s0,8(sp)
    26ac:	00000797          	auipc	a5,0x0
    26b0:	fa678793          	addi	a5,a5,-90 # 2652 <_cleanup_r>
    26b4:	d51c                	sw	a5,40(a0)
    26b6:	81418793          	addi	a5,gp,-2028 # 20000074 <_global_impure_ptr>
    26ba:	439c                	lw	a5,0(a5)
    26bc:	04052423          	sw	zero,72(a0)
    26c0:	04052623          	sw	zero,76(a0)
    26c4:	04052823          	sw	zero,80(a0)
    26c8:	00f51463          	bne	a0,a5,26d0 <__sinit+0x2e>
    26cc:	4785                	li	a5,1
    26ce:	cd1c                	sw	a5,24(a0)
    26d0:	842a                	mv	s0,a0
    26d2:	281d                	jal	2708 <__sfp>
    26d4:	c048                	sw	a0,4(s0)
    26d6:	8522                	mv	a0,s0
    26d8:	2805                	jal	2708 <__sfp>
    26da:	c408                	sw	a0,8(s0)
    26dc:	8522                	mv	a0,s0
    26de:	202d                	jal	2708 <__sfp>
    26e0:	c448                	sw	a0,12(s0)
    26e2:	4048                	lw	a0,4(s0)
    26e4:	4601                	li	a2,0
    26e6:	4591                	li	a1,4
    26e8:	3701                	jal	25e8 <std>
    26ea:	4408                	lw	a0,8(s0)
    26ec:	4605                	li	a2,1
    26ee:	45a5                	li	a1,9
    26f0:	3de5                	jal	25e8 <std>
    26f2:	4448                	lw	a0,12(s0)
    26f4:	4609                	li	a2,2
    26f6:	45c9                	li	a1,18
    26f8:	3dc5                	jal	25e8 <std>
    26fa:	4785                	li	a5,1
    26fc:	cc1c                	sw	a5,24(s0)
    26fe:	40b2                	lw	ra,12(sp)
    2700:	4422                	lw	s0,8(sp)
    2702:	0141                	addi	sp,sp,16
    2704:	8082                	ret
    2706:	8082                	ret

00002708 <__sfp>:
    2708:	1141                	addi	sp,sp,-16
    270a:	81418793          	addi	a5,gp,-2028 # 20000074 <_global_impure_ptr>
    270e:	c226                	sw	s1,4(sp)
    2710:	4384                	lw	s1,0(a5)
    2712:	c04a                	sw	s2,0(sp)
    2714:	c606                	sw	ra,12(sp)
    2716:	4c9c                	lw	a5,24(s1)
    2718:	c422                	sw	s0,8(sp)
    271a:	892a                	mv	s2,a0
    271c:	e399                	bnez	a5,2722 <__sfp+0x1a>
    271e:	8526                	mv	a0,s1
    2720:	3749                	jal	26a2 <__sinit>
    2722:	04848493          	addi	s1,s1,72
    2726:	4480                	lw	s0,8(s1)
    2728:	40dc                	lw	a5,4(s1)
    272a:	17fd                	addi	a5,a5,-1
    272c:	0007d663          	bgez	a5,2738 <__sfp+0x30>
    2730:	409c                	lw	a5,0(s1)
    2732:	cfb9                	beqz	a5,2790 <__sfp+0x88>
    2734:	4084                	lw	s1,0(s1)
    2736:	bfc5                	j	2726 <__sfp+0x1e>
    2738:	00c41703          	lh	a4,12(s0)
    273c:	e739                	bnez	a4,278a <__sfp+0x82>
    273e:	77c1                	lui	a5,0xffff0
    2740:	0785                	addi	a5,a5,1
    2742:	06042223          	sw	zero,100(s0)
    2746:	00042023          	sw	zero,0(s0)
    274a:	00042223          	sw	zero,4(s0)
    274e:	00042423          	sw	zero,8(s0)
    2752:	c45c                	sw	a5,12(s0)
    2754:	00042823          	sw	zero,16(s0)
    2758:	00042a23          	sw	zero,20(s0)
    275c:	00042c23          	sw	zero,24(s0)
    2760:	4621                	li	a2,8
    2762:	4581                	li	a1,0
    2764:	05c40513          	addi	a0,s0,92
    2768:	999fd0ef          	jal	ra,100 <memset>
    276c:	02042a23          	sw	zero,52(s0)
    2770:	02042c23          	sw	zero,56(s0)
    2774:	04042423          	sw	zero,72(s0)
    2778:	04042623          	sw	zero,76(s0)
    277c:	8522                	mv	a0,s0
    277e:	40b2                	lw	ra,12(sp)
    2780:	4422                	lw	s0,8(sp)
    2782:	4492                	lw	s1,4(sp)
    2784:	4902                	lw	s2,0(sp)
    2786:	0141                	addi	sp,sp,16
    2788:	8082                	ret
    278a:	06840413          	addi	s0,s0,104
    278e:	bf71                	j	272a <__sfp+0x22>
    2790:	4591                	li	a1,4
    2792:	854a                	mv	a0,s2
    2794:	35e1                	jal	265c <__sfmoreglue>
    2796:	c088                	sw	a0,0(s1)
    2798:	fd51                	bnez	a0,2734 <__sfp+0x2c>
    279a:	47b1                	li	a5,12
    279c:	00f92023          	sw	a5,0(s2)
    27a0:	4401                	li	s0,0
    27a2:	bfe9                	j	277c <__sfp+0x74>

000027a4 <_fwalk_reent>:
    27a4:	7179                	addi	sp,sp,-48
    27a6:	d422                	sw	s0,40(sp)
    27a8:	d04a                	sw	s2,32(sp)
    27aa:	cc52                	sw	s4,24(sp)
    27ac:	ca56                	sw	s5,20(sp)
    27ae:	c85a                	sw	s6,16(sp)
    27b0:	c65e                	sw	s7,12(sp)
    27b2:	d606                	sw	ra,44(sp)
    27b4:	d226                	sw	s1,36(sp)
    27b6:	ce4e                	sw	s3,28(sp)
    27b8:	8a2a                	mv	s4,a0
    27ba:	8aae                	mv	s5,a1
    27bc:	04850413          	addi	s0,a0,72
    27c0:	4901                	li	s2,0
    27c2:	4b05                	li	s6,1
    27c4:	5bfd                	li	s7,-1
    27c6:	ec09                	bnez	s0,27e0 <_fwalk_reent+0x3c>
    27c8:	50b2                	lw	ra,44(sp)
    27ca:	5422                	lw	s0,40(sp)
    27cc:	854a                	mv	a0,s2
    27ce:	5492                	lw	s1,36(sp)
    27d0:	5902                	lw	s2,32(sp)
    27d2:	49f2                	lw	s3,28(sp)
    27d4:	4a62                	lw	s4,24(sp)
    27d6:	4ad2                	lw	s5,20(sp)
    27d8:	4b42                	lw	s6,16(sp)
    27da:	4bb2                	lw	s7,12(sp)
    27dc:	6145                	addi	sp,sp,48
    27de:	8082                	ret
    27e0:	4404                	lw	s1,8(s0)
    27e2:	00442983          	lw	s3,4(s0)
    27e6:	19fd                	addi	s3,s3,-1
    27e8:	0009d463          	bgez	s3,27f0 <_fwalk_reent+0x4c>
    27ec:	4000                	lw	s0,0(s0)
    27ee:	bfe1                	j	27c6 <_fwalk_reent+0x22>
    27f0:	00c4d783          	lhu	a5,12(s1)
    27f4:	00fb7b63          	bgeu	s6,a5,280a <_fwalk_reent+0x66>
    27f8:	00e49783          	lh	a5,14(s1)
    27fc:	01778763          	beq	a5,s7,280a <_fwalk_reent+0x66>
    2800:	85a6                	mv	a1,s1
    2802:	8552                	mv	a0,s4
    2804:	9a82                	jalr	s5
    2806:	00a96933          	or	s2,s2,a0
    280a:	06848493          	addi	s1,s1,104
    280e:	bfe1                	j	27e6 <_fwalk_reent+0x42>

00002810 <__swhatbuf_r>:
    2810:	7119                	addi	sp,sp,-128
    2812:	daa6                	sw	s1,116(sp)
    2814:	84ae                	mv	s1,a1
    2816:	00e59583          	lh	a1,14(a1)
    281a:	dca2                	sw	s0,120(sp)
    281c:	de86                	sw	ra,124(sp)
    281e:	8432                	mv	s0,a2
    2820:	0005dc63          	bgez	a1,2838 <__swhatbuf_r+0x28>
    2824:	00c4d783          	lhu	a5,12(s1)
    2828:	0006a023          	sw	zero,0(a3)
    282c:	0807f793          	andi	a5,a5,128
    2830:	e785                	bnez	a5,2858 <__swhatbuf_r+0x48>
    2832:	40000793          	li	a5,1024
    2836:	a01d                	j	285c <__swhatbuf_r+0x4c>
    2838:	0830                	addi	a2,sp,24
    283a:	c636                	sw	a3,12(sp)
    283c:	23d000ef          	jal	ra,3278 <_fstat_r>
    2840:	46b2                	lw	a3,12(sp)
    2842:	fe0541e3          	bltz	a0,2824 <__swhatbuf_r+0x14>
    2846:	4772                	lw	a4,28(sp)
    2848:	67bd                	lui	a5,0xf
    284a:	8ff9                	and	a5,a5,a4
    284c:	7779                	lui	a4,0xffffe
    284e:	97ba                	add	a5,a5,a4
    2850:	0017b793          	seqz	a5,a5
    2854:	c29c                	sw	a5,0(a3)
    2856:	bff1                	j	2832 <__swhatbuf_r+0x22>
    2858:	04000793          	li	a5,64
    285c:	c01c                	sw	a5,0(s0)
    285e:	50f6                	lw	ra,124(sp)
    2860:	5466                	lw	s0,120(sp)
    2862:	54d6                	lw	s1,116(sp)
    2864:	4501                	li	a0,0
    2866:	6109                	addi	sp,sp,128
    2868:	8082                	ret

0000286a <__smakebuf_r>:
    286a:	00c5d783          	lhu	a5,12(a1)
    286e:	1101                	addi	sp,sp,-32
    2870:	cc22                	sw	s0,24(sp)
    2872:	ce06                	sw	ra,28(sp)
    2874:	ca26                	sw	s1,20(sp)
    2876:	c84a                	sw	s2,16(sp)
    2878:	8b89                	andi	a5,a5,2
    287a:	842e                	mv	s0,a1
    287c:	cf89                	beqz	a5,2896 <__smakebuf_r+0x2c>
    287e:	04740793          	addi	a5,s0,71
    2882:	c01c                	sw	a5,0(s0)
    2884:	c81c                	sw	a5,16(s0)
    2886:	4785                	li	a5,1
    2888:	c85c                	sw	a5,20(s0)
    288a:	40f2                	lw	ra,28(sp)
    288c:	4462                	lw	s0,24(sp)
    288e:	44d2                	lw	s1,20(sp)
    2890:	4942                	lw	s2,16(sp)
    2892:	6105                	addi	sp,sp,32
    2894:	8082                	ret
    2896:	0074                	addi	a3,sp,12
    2898:	0030                	addi	a2,sp,8
    289a:	84aa                	mv	s1,a0
    289c:	3f95                	jal	2810 <__swhatbuf_r>
    289e:	45a2                	lw	a1,8(sp)
    28a0:	892a                	mv	s2,a0
    28a2:	8526                	mv	a0,s1
    28a4:	2231                	jal	29b0 <_malloc_r>
    28a6:	ed01                	bnez	a0,28be <__smakebuf_r+0x54>
    28a8:	00c41783          	lh	a5,12(s0)
    28ac:	2007f713          	andi	a4,a5,512
    28b0:	ff69                	bnez	a4,288a <__smakebuf_r+0x20>
    28b2:	9bf1                	andi	a5,a5,-4
    28b4:	0027e793          	ori	a5,a5,2
    28b8:	00f41623          	sh	a5,12(s0)
    28bc:	b7c9                	j	287e <__smakebuf_r+0x14>
    28be:	00000797          	auipc	a5,0x0
    28c2:	d9478793          	addi	a5,a5,-620 # 2652 <_cleanup_r>
    28c6:	d49c                	sw	a5,40(s1)
    28c8:	00c45783          	lhu	a5,12(s0)
    28cc:	c008                	sw	a0,0(s0)
    28ce:	c808                	sw	a0,16(s0)
    28d0:	0807e793          	ori	a5,a5,128
    28d4:	00f41623          	sh	a5,12(s0)
    28d8:	47a2                	lw	a5,8(sp)
    28da:	c85c                	sw	a5,20(s0)
    28dc:	47b2                	lw	a5,12(sp)
    28de:	cf91                	beqz	a5,28fa <__smakebuf_r+0x90>
    28e0:	00e41583          	lh	a1,14(s0)
    28e4:	8526                	mv	a0,s1
    28e6:	1bd000ef          	jal	ra,32a2 <_isatty_r>
    28ea:	c901                	beqz	a0,28fa <__smakebuf_r+0x90>
    28ec:	00c45783          	lhu	a5,12(s0)
    28f0:	9bf1                	andi	a5,a5,-4
    28f2:	0017e793          	ori	a5,a5,1
    28f6:	00f41623          	sh	a5,12(s0)
    28fa:	00c45783          	lhu	a5,12(s0)
    28fe:	00f96933          	or	s2,s2,a5
    2902:	01241623          	sh	s2,12(s0)
    2906:	b751                	j	288a <__smakebuf_r+0x20>

00002908 <_free_r>:
    2908:	c1dd                	beqz	a1,29ae <_free_r+0xa6>
    290a:	ffc5a783          	lw	a5,-4(a1)
    290e:	1141                	addi	sp,sp,-16
    2910:	c422                	sw	s0,8(sp)
    2912:	c606                	sw	ra,12(sp)
    2914:	c226                	sw	s1,4(sp)
    2916:	ffc58413          	addi	s0,a1,-4
    291a:	0007d363          	bgez	a5,2920 <_free_r+0x18>
    291e:	943e                	add	s0,s0,a5
    2920:	84aa                	mv	s1,a0
    2922:	1ef000ef          	jal	ra,3310 <__malloc_lock>
    2926:	88818793          	addi	a5,gp,-1912 # 200000e8 <__malloc_free_list>
    292a:	439c                	lw	a5,0(a5)
    292c:	ef81                	bnez	a5,2944 <_free_r+0x3c>
    292e:	00042223          	sw	zero,4(s0)
    2932:	8881a423          	sw	s0,-1912(gp) # 200000e8 <__malloc_free_list>
    2936:	4422                	lw	s0,8(sp)
    2938:	40b2                	lw	ra,12(sp)
    293a:	8526                	mv	a0,s1
    293c:	4492                	lw	s1,4(sp)
    293e:	0141                	addi	sp,sp,16
    2940:	1d30006f          	j	3312 <__malloc_unlock>
    2944:	00f47e63          	bgeu	s0,a5,2960 <_free_r+0x58>
    2948:	4014                	lw	a3,0(s0)
    294a:	00d40733          	add	a4,s0,a3
    294e:	00e79663          	bne	a5,a4,295a <_free_r+0x52>
    2952:	4398                	lw	a4,0(a5)
    2954:	43dc                	lw	a5,4(a5)
    2956:	9736                	add	a4,a4,a3
    2958:	c018                	sw	a4,0(s0)
    295a:	c05c                	sw	a5,4(s0)
    295c:	bfd9                	j	2932 <_free_r+0x2a>
    295e:	87ba                	mv	a5,a4
    2960:	43d8                	lw	a4,4(a5)
    2962:	c319                	beqz	a4,2968 <_free_r+0x60>
    2964:	fee47de3          	bgeu	s0,a4,295e <_free_r+0x56>
    2968:	4394                	lw	a3,0(a5)
    296a:	00d78633          	add	a2,a5,a3
    296e:	00861f63          	bne	a2,s0,298c <_free_r+0x84>
    2972:	4010                	lw	a2,0(s0)
    2974:	96b2                	add	a3,a3,a2
    2976:	c394                	sw	a3,0(a5)
    2978:	00d78633          	add	a2,a5,a3
    297c:	fac71de3          	bne	a4,a2,2936 <_free_r+0x2e>
    2980:	4310                	lw	a2,0(a4)
    2982:	4358                	lw	a4,4(a4)
    2984:	96b2                	add	a3,a3,a2
    2986:	c394                	sw	a3,0(a5)
    2988:	c3d8                	sw	a4,4(a5)
    298a:	b775                	j	2936 <_free_r+0x2e>
    298c:	00c47563          	bgeu	s0,a2,2996 <_free_r+0x8e>
    2990:	47b1                	li	a5,12
    2992:	c09c                	sw	a5,0(s1)
    2994:	b74d                	j	2936 <_free_r+0x2e>
    2996:	4010                	lw	a2,0(s0)
    2998:	00c406b3          	add	a3,s0,a2
    299c:	00d71663          	bne	a4,a3,29a8 <_free_r+0xa0>
    29a0:	4314                	lw	a3,0(a4)
    29a2:	4358                	lw	a4,4(a4)
    29a4:	96b2                	add	a3,a3,a2
    29a6:	c014                	sw	a3,0(s0)
    29a8:	c058                	sw	a4,4(s0)
    29aa:	c3c0                	sw	s0,4(a5)
    29ac:	b769                	j	2936 <_free_r+0x2e>
    29ae:	8082                	ret

000029b0 <_malloc_r>:
    29b0:	1101                	addi	sp,sp,-32
    29b2:	ca26                	sw	s1,20(sp)
    29b4:	00358493          	addi	s1,a1,3
    29b8:	98f1                	andi	s1,s1,-4
    29ba:	ce06                	sw	ra,28(sp)
    29bc:	cc22                	sw	s0,24(sp)
    29be:	c84a                	sw	s2,16(sp)
    29c0:	c64e                	sw	s3,12(sp)
    29c2:	04a1                	addi	s1,s1,8
    29c4:	47b1                	li	a5,12
    29c6:	04f4f363          	bgeu	s1,a5,2a0c <_malloc_r+0x5c>
    29ca:	44b1                	li	s1,12
    29cc:	04b4e263          	bltu	s1,a1,2a10 <_malloc_r+0x60>
    29d0:	892a                	mv	s2,a0
    29d2:	13f000ef          	jal	ra,3310 <__malloc_lock>
    29d6:	88818793          	addi	a5,gp,-1912 # 200000e8 <__malloc_free_list>
    29da:	4398                	lw	a4,0(a5)
    29dc:	843a                	mv	s0,a4
    29de:	e039                	bnez	s0,2a24 <_malloc_r+0x74>
    29e0:	88c18793          	addi	a5,gp,-1908 # 200000ec <__malloc_sbrk_start>
    29e4:	439c                	lw	a5,0(a5)
    29e6:	e791                	bnez	a5,29f2 <_malloc_r+0x42>
    29e8:	4581                	li	a1,0
    29ea:	854a                	mv	a0,s2
    29ec:	2f89                	jal	313e <_sbrk_r>
    29ee:	88a1a623          	sw	a0,-1908(gp) # 200000ec <__malloc_sbrk_start>
    29f2:	85a6                	mv	a1,s1
    29f4:	854a                	mv	a0,s2
    29f6:	27a1                	jal	313e <_sbrk_r>
    29f8:	59fd                	li	s3,-1
    29fa:	07351963          	bne	a0,s3,2a6c <_malloc_r+0xbc>
    29fe:	47b1                	li	a5,12
    2a00:	00f92023          	sw	a5,0(s2)
    2a04:	854a                	mv	a0,s2
    2a06:	10d000ef          	jal	ra,3312 <__malloc_unlock>
    2a0a:	a029                	j	2a14 <_malloc_r+0x64>
    2a0c:	fc04d0e3          	bgez	s1,29cc <_malloc_r+0x1c>
    2a10:	47b1                	li	a5,12
    2a12:	c11c                	sw	a5,0(a0)
    2a14:	4501                	li	a0,0
    2a16:	40f2                	lw	ra,28(sp)
    2a18:	4462                	lw	s0,24(sp)
    2a1a:	44d2                	lw	s1,20(sp)
    2a1c:	4942                	lw	s2,16(sp)
    2a1e:	49b2                	lw	s3,12(sp)
    2a20:	6105                	addi	sp,sp,32
    2a22:	8082                	ret
    2a24:	401c                	lw	a5,0(s0)
    2a26:	8f85                	sub	a5,a5,s1
    2a28:	0207cf63          	bltz	a5,2a66 <_malloc_r+0xb6>
    2a2c:	46ad                	li	a3,11
    2a2e:	00f6f663          	bgeu	a3,a5,2a3a <_malloc_r+0x8a>
    2a32:	c01c                	sw	a5,0(s0)
    2a34:	943e                	add	s0,s0,a5
    2a36:	c004                	sw	s1,0(s0)
    2a38:	a031                	j	2a44 <_malloc_r+0x94>
    2a3a:	405c                	lw	a5,4(s0)
    2a3c:	02871363          	bne	a4,s0,2a62 <_malloc_r+0xb2>
    2a40:	88f1a423          	sw	a5,-1912(gp) # 200000e8 <__malloc_free_list>
    2a44:	854a                	mv	a0,s2
    2a46:	0cd000ef          	jal	ra,3312 <__malloc_unlock>
    2a4a:	00b40513          	addi	a0,s0,11
    2a4e:	00440793          	addi	a5,s0,4
    2a52:	9961                	andi	a0,a0,-8
    2a54:	40f50733          	sub	a4,a0,a5
    2a58:	df5d                	beqz	a4,2a16 <_malloc_r+0x66>
    2a5a:	943a                	add	s0,s0,a4
    2a5c:	8f89                	sub	a5,a5,a0
    2a5e:	c01c                	sw	a5,0(s0)
    2a60:	bf5d                	j	2a16 <_malloc_r+0x66>
    2a62:	c35c                	sw	a5,4(a4)
    2a64:	b7c5                	j	2a44 <_malloc_r+0x94>
    2a66:	8722                	mv	a4,s0
    2a68:	4040                	lw	s0,4(s0)
    2a6a:	bf95                	j	29de <_malloc_r+0x2e>
    2a6c:	00350413          	addi	s0,a0,3
    2a70:	9871                	andi	s0,s0,-4
    2a72:	fc8502e3          	beq	a0,s0,2a36 <_malloc_r+0x86>
    2a76:	40a405b3          	sub	a1,s0,a0
    2a7a:	854a                	mv	a0,s2
    2a7c:	25c9                	jal	313e <_sbrk_r>
    2a7e:	fb351ce3          	bne	a0,s3,2a36 <_malloc_r+0x86>
    2a82:	bfb5                	j	29fe <_malloc_r+0x4e>

00002a84 <__sfputc_r>:
    2a84:	461c                	lw	a5,8(a2)
    2a86:	17fd                	addi	a5,a5,-1
    2a88:	c61c                	sw	a5,8(a2)
    2a8a:	0007da63          	bgez	a5,2a9e <__sfputc_r+0x1a>
    2a8e:	4e18                	lw	a4,24(a2)
    2a90:	00e7c563          	blt	a5,a4,2a9a <__sfputc_r+0x16>
    2a94:	47a9                	li	a5,10
    2a96:	00f59463          	bne	a1,a5,2a9e <__sfputc_r+0x1a>
    2a9a:	fe2ff06f          	j	227c <__swbuf_r>
    2a9e:	421c                	lw	a5,0(a2)
    2aa0:	852e                	mv	a0,a1
    2aa2:	00178713          	addi	a4,a5,1
    2aa6:	c218                	sw	a4,0(a2)
    2aa8:	00b78023          	sb	a1,0(a5)
    2aac:	8082                	ret

00002aae <__sfputs_r>:
    2aae:	1101                	addi	sp,sp,-32
    2ab0:	cc22                	sw	s0,24(sp)
    2ab2:	ca26                	sw	s1,20(sp)
    2ab4:	c84a                	sw	s2,16(sp)
    2ab6:	c64e                	sw	s3,12(sp)
    2ab8:	c452                	sw	s4,8(sp)
    2aba:	ce06                	sw	ra,28(sp)
    2abc:	892a                	mv	s2,a0
    2abe:	89ae                	mv	s3,a1
    2ac0:	8432                	mv	s0,a2
    2ac2:	00d604b3          	add	s1,a2,a3
    2ac6:	5a7d                	li	s4,-1
    2ac8:	00941463          	bne	s0,s1,2ad0 <__sfputs_r+0x22>
    2acc:	4501                	li	a0,0
    2ace:	a809                	j	2ae0 <__sfputs_r+0x32>
    2ad0:	00044583          	lbu	a1,0(s0)
    2ad4:	864e                	mv	a2,s3
    2ad6:	854a                	mv	a0,s2
    2ad8:	3775                	jal	2a84 <__sfputc_r>
    2ada:	0405                	addi	s0,s0,1
    2adc:	ff4516e3          	bne	a0,s4,2ac8 <__sfputs_r+0x1a>
    2ae0:	40f2                	lw	ra,28(sp)
    2ae2:	4462                	lw	s0,24(sp)
    2ae4:	44d2                	lw	s1,20(sp)
    2ae6:	4942                	lw	s2,16(sp)
    2ae8:	49b2                	lw	s3,12(sp)
    2aea:	4a22                	lw	s4,8(sp)
    2aec:	6105                	addi	sp,sp,32
    2aee:	8082                	ret

00002af0 <_vfiprintf_r>:
    2af0:	7135                	addi	sp,sp,-160
    2af2:	cd22                	sw	s0,152(sp)
    2af4:	cb26                	sw	s1,148(sp)
    2af6:	c94a                	sw	s2,144(sp)
    2af8:	c74e                	sw	s3,140(sp)
    2afa:	cf06                	sw	ra,156(sp)
    2afc:	c552                	sw	s4,136(sp)
    2afe:	c356                	sw	s5,132(sp)
    2b00:	c15a                	sw	s6,128(sp)
    2b02:	dede                	sw	s7,124(sp)
    2b04:	dce2                	sw	s8,120(sp)
    2b06:	dae6                	sw	s9,116(sp)
    2b08:	89aa                	mv	s3,a0
    2b0a:	84ae                	mv	s1,a1
    2b0c:	8932                	mv	s2,a2
    2b0e:	8436                	mv	s0,a3
    2b10:	c509                	beqz	a0,2b1a <_vfiprintf_r+0x2a>
    2b12:	4d1c                	lw	a5,24(a0)
    2b14:	e399                	bnez	a5,2b1a <_vfiprintf_r+0x2a>
    2b16:	b8dff0ef          	jal	ra,26a2 <__sinit>
    2b1a:	00001797          	auipc	a5,0x1
    2b1e:	ac278793          	addi	a5,a5,-1342 # 35dc <__sf_fake_stdin>
    2b22:	0cf49b63          	bne	s1,a5,2bf8 <_vfiprintf_r+0x108>
    2b26:	0049a483          	lw	s1,4(s3)
    2b2a:	00c4d783          	lhu	a5,12(s1)
    2b2e:	8ba1                	andi	a5,a5,8
    2b30:	c7f5                	beqz	a5,2c1c <_vfiprintf_r+0x12c>
    2b32:	489c                	lw	a5,16(s1)
    2b34:	c7e5                	beqz	a5,2c1c <_vfiprintf_r+0x12c>
    2b36:	02000793          	li	a5,32
    2b3a:	02f104a3          	sb	a5,41(sp)
    2b3e:	03000793          	li	a5,48
    2b42:	d202                	sw	zero,36(sp)
    2b44:	02f10523          	sb	a5,42(sp)
    2b48:	c622                	sw	s0,12(sp)
    2b4a:	02500b93          	li	s7,37
    2b4e:	00001a97          	auipc	s5,0x1
    2b52:	acea8a93          	addi	s5,s5,-1330 # 361c <__sf_fake_stdout+0x20>
    2b56:	4c05                	li	s8,1
    2b58:	4b29                	li	s6,10
    2b5a:	844a                	mv	s0,s2
    2b5c:	00044783          	lbu	a5,0(s0)
    2b60:	c399                	beqz	a5,2b66 <_vfiprintf_r+0x76>
    2b62:	0f779063          	bne	a5,s7,2c42 <_vfiprintf_r+0x152>
    2b66:	41240cb3          	sub	s9,s0,s2
    2b6a:	000c8d63          	beqz	s9,2b84 <_vfiprintf_r+0x94>
    2b6e:	86e6                	mv	a3,s9
    2b70:	864a                	mv	a2,s2
    2b72:	85a6                	mv	a1,s1
    2b74:	854e                	mv	a0,s3
    2b76:	3f25                	jal	2aae <__sfputs_r>
    2b78:	57fd                	li	a5,-1
    2b7a:	1ef50663          	beq	a0,a5,2d66 <_vfiprintf_r+0x276>
    2b7e:	5692                	lw	a3,36(sp)
    2b80:	96e6                	add	a3,a3,s9
    2b82:	d236                	sw	a3,36(sp)
    2b84:	00044783          	lbu	a5,0(s0)
    2b88:	1c078f63          	beqz	a5,2d66 <_vfiprintf_r+0x276>
    2b8c:	57fd                	li	a5,-1
    2b8e:	00140913          	addi	s2,s0,1
    2b92:	c802                	sw	zero,16(sp)
    2b94:	ce02                	sw	zero,28(sp)
    2b96:	ca3e                	sw	a5,20(sp)
    2b98:	cc02                	sw	zero,24(sp)
    2b9a:	040109a3          	sb	zero,83(sp)
    2b9e:	d482                	sw	zero,104(sp)
    2ba0:	00094583          	lbu	a1,0(s2)
    2ba4:	4615                	li	a2,5
    2ba6:	8556                	mv	a0,s5
    2ba8:	27b9                	jal	32f6 <memchr>
    2baa:	00190413          	addi	s0,s2,1
    2bae:	47c2                	lw	a5,16(sp)
    2bb0:	e959                	bnez	a0,2c46 <_vfiprintf_r+0x156>
    2bb2:	0107f713          	andi	a4,a5,16
    2bb6:	c709                	beqz	a4,2bc0 <_vfiprintf_r+0xd0>
    2bb8:	02000713          	li	a4,32
    2bbc:	04e109a3          	sb	a4,83(sp)
    2bc0:	0087f713          	andi	a4,a5,8
    2bc4:	c709                	beqz	a4,2bce <_vfiprintf_r+0xde>
    2bc6:	02b00713          	li	a4,43
    2bca:	04e109a3          	sb	a4,83(sp)
    2bce:	00094683          	lbu	a3,0(s2)
    2bd2:	02a00713          	li	a4,42
    2bd6:	08e68063          	beq	a3,a4,2c56 <_vfiprintf_r+0x166>
    2bda:	47f2                	lw	a5,28(sp)
    2bdc:	844a                	mv	s0,s2
    2bde:	4681                	li	a3,0
    2be0:	4625                	li	a2,9
    2be2:	00044703          	lbu	a4,0(s0)
    2be6:	00140593          	addi	a1,s0,1
    2bea:	fd070713          	addi	a4,a4,-48 # ffffdfd0 <_eusrstack+0xdfff8fd0>
    2bee:	0ae67963          	bgeu	a2,a4,2ca0 <_vfiprintf_r+0x1b0>
    2bf2:	cab5                	beqz	a3,2c66 <_vfiprintf_r+0x176>
    2bf4:	ce3e                	sw	a5,28(sp)
    2bf6:	a885                	j	2c66 <_vfiprintf_r+0x176>
    2bf8:	00001797          	auipc	a5,0x1
    2bfc:	a0478793          	addi	a5,a5,-1532 # 35fc <__sf_fake_stdout>
    2c00:	00f49563          	bne	s1,a5,2c0a <_vfiprintf_r+0x11a>
    2c04:	0089a483          	lw	s1,8(s3)
    2c08:	b70d                	j	2b2a <_vfiprintf_r+0x3a>
    2c0a:	00001797          	auipc	a5,0x1
    2c0e:	9b278793          	addi	a5,a5,-1614 # 35bc <__sf_fake_stderr>
    2c12:	f0f49ce3          	bne	s1,a5,2b2a <_vfiprintf_r+0x3a>
    2c16:	00c9a483          	lw	s1,12(s3)
    2c1a:	bf01                	j	2b2a <_vfiprintf_r+0x3a>
    2c1c:	85a6                	mv	a1,s1
    2c1e:	854e                	mv	a0,s3
    2c20:	f1cff0ef          	jal	ra,233c <__swsetup_r>
    2c24:	d909                	beqz	a0,2b36 <_vfiprintf_r+0x46>
    2c26:	557d                	li	a0,-1
    2c28:	40fa                	lw	ra,156(sp)
    2c2a:	446a                	lw	s0,152(sp)
    2c2c:	44da                	lw	s1,148(sp)
    2c2e:	494a                	lw	s2,144(sp)
    2c30:	49ba                	lw	s3,140(sp)
    2c32:	4a2a                	lw	s4,136(sp)
    2c34:	4a9a                	lw	s5,132(sp)
    2c36:	4b0a                	lw	s6,128(sp)
    2c38:	5bf6                	lw	s7,124(sp)
    2c3a:	5c66                	lw	s8,120(sp)
    2c3c:	5cd6                	lw	s9,116(sp)
    2c3e:	610d                	addi	sp,sp,160
    2c40:	8082                	ret
    2c42:	0405                	addi	s0,s0,1
    2c44:	bf21                	j	2b5c <_vfiprintf_r+0x6c>
    2c46:	41550533          	sub	a0,a0,s5
    2c4a:	00ac1533          	sll	a0,s8,a0
    2c4e:	8fc9                	or	a5,a5,a0
    2c50:	c83e                	sw	a5,16(sp)
    2c52:	8922                	mv	s2,s0
    2c54:	b7b1                	j	2ba0 <_vfiprintf_r+0xb0>
    2c56:	4732                	lw	a4,12(sp)
    2c58:	00470693          	addi	a3,a4,4
    2c5c:	4318                	lw	a4,0(a4)
    2c5e:	c636                	sw	a3,12(sp)
    2c60:	02074963          	bltz	a4,2c92 <_vfiprintf_r+0x1a2>
    2c64:	ce3a                	sw	a4,28(sp)
    2c66:	00044703          	lbu	a4,0(s0)
    2c6a:	02e00793          	li	a5,46
    2c6e:	04f71f63          	bne	a4,a5,2ccc <_vfiprintf_r+0x1dc>
    2c72:	00144703          	lbu	a4,1(s0)
    2c76:	02a00793          	li	a5,42
    2c7a:	02f71b63          	bne	a4,a5,2cb0 <_vfiprintf_r+0x1c0>
    2c7e:	47b2                	lw	a5,12(sp)
    2c80:	0409                	addi	s0,s0,2
    2c82:	00478713          	addi	a4,a5,4
    2c86:	439c                	lw	a5,0(a5)
    2c88:	c63a                	sw	a4,12(sp)
    2c8a:	0207c163          	bltz	a5,2cac <_vfiprintf_r+0x1bc>
    2c8e:	ca3e                	sw	a5,20(sp)
    2c90:	a835                	j	2ccc <_vfiprintf_r+0x1dc>
    2c92:	40e00733          	neg	a4,a4
    2c96:	0027e793          	ori	a5,a5,2
    2c9a:	ce3a                	sw	a4,28(sp)
    2c9c:	c83e                	sw	a5,16(sp)
    2c9e:	b7e1                	j	2c66 <_vfiprintf_r+0x176>
    2ca0:	036787b3          	mul	a5,a5,s6
    2ca4:	4685                	li	a3,1
    2ca6:	842e                	mv	s0,a1
    2ca8:	97ba                	add	a5,a5,a4
    2caa:	bf25                	j	2be2 <_vfiprintf_r+0xf2>
    2cac:	57fd                	li	a5,-1
    2cae:	b7c5                	j	2c8e <_vfiprintf_r+0x19e>
    2cb0:	0405                	addi	s0,s0,1
    2cb2:	ca02                	sw	zero,20(sp)
    2cb4:	4681                	li	a3,0
    2cb6:	4781                	li	a5,0
    2cb8:	4625                	li	a2,9
    2cba:	00044703          	lbu	a4,0(s0)
    2cbe:	00140593          	addi	a1,s0,1
    2cc2:	fd070713          	addi	a4,a4,-48
    2cc6:	06e67663          	bgeu	a2,a4,2d32 <_vfiprintf_r+0x242>
    2cca:	f2f1                	bnez	a3,2c8e <_vfiprintf_r+0x19e>
    2ccc:	00044583          	lbu	a1,0(s0)
    2cd0:	460d                	li	a2,3
    2cd2:	00001517          	auipc	a0,0x1
    2cd6:	95250513          	addi	a0,a0,-1710 # 3624 <__sf_fake_stdout+0x28>
    2cda:	2d31                	jal	32f6 <memchr>
    2cdc:	cd11                	beqz	a0,2cf8 <_vfiprintf_r+0x208>
    2cde:	00001797          	auipc	a5,0x1
    2ce2:	94678793          	addi	a5,a5,-1722 # 3624 <__sf_fake_stdout+0x28>
    2ce6:	8d1d                	sub	a0,a0,a5
    2ce8:	04000793          	li	a5,64
    2cec:	00a797b3          	sll	a5,a5,a0
    2cf0:	4542                	lw	a0,16(sp)
    2cf2:	0405                	addi	s0,s0,1
    2cf4:	8d5d                	or	a0,a0,a5
    2cf6:	c82a                	sw	a0,16(sp)
    2cf8:	00044583          	lbu	a1,0(s0)
    2cfc:	4619                	li	a2,6
    2cfe:	00001517          	auipc	a0,0x1
    2d02:	92a50513          	addi	a0,a0,-1750 # 3628 <__sf_fake_stdout+0x2c>
    2d06:	00140913          	addi	s2,s0,1
    2d0a:	02b10423          	sb	a1,40(sp)
    2d0e:	23e5                	jal	32f6 <memchr>
    2d10:	c13d                	beqz	a0,2d76 <_vfiprintf_r+0x286>
    2d12:	ffffd797          	auipc	a5,0xffffd
    2d16:	2ee78793          	addi	a5,a5,750 # 0 <_sinit>
    2d1a:	e795                	bnez	a5,2d46 <_vfiprintf_r+0x256>
    2d1c:	4742                	lw	a4,16(sp)
    2d1e:	47b2                	lw	a5,12(sp)
    2d20:	10077713          	andi	a4,a4,256
    2d24:	cf09                	beqz	a4,2d3e <_vfiprintf_r+0x24e>
    2d26:	0791                	addi	a5,a5,4
    2d28:	c63e                	sw	a5,12(sp)
    2d2a:	5792                	lw	a5,36(sp)
    2d2c:	97d2                	add	a5,a5,s4
    2d2e:	d23e                	sw	a5,36(sp)
    2d30:	b52d                	j	2b5a <_vfiprintf_r+0x6a>
    2d32:	036787b3          	mul	a5,a5,s6
    2d36:	4685                	li	a3,1
    2d38:	842e                	mv	s0,a1
    2d3a:	97ba                	add	a5,a5,a4
    2d3c:	bfbd                	j	2cba <_vfiprintf_r+0x1ca>
    2d3e:	079d                	addi	a5,a5,7
    2d40:	9be1                	andi	a5,a5,-8
    2d42:	07a1                	addi	a5,a5,8
    2d44:	b7d5                	j	2d28 <_vfiprintf_r+0x238>
    2d46:	0078                	addi	a4,sp,12
    2d48:	00000697          	auipc	a3,0x0
    2d4c:	d6668693          	addi	a3,a3,-666 # 2aae <__sfputs_r>
    2d50:	8626                	mv	a2,s1
    2d52:	080c                	addi	a1,sp,16
    2d54:	854e                	mv	a0,s3
    2d56:	00000097          	auipc	ra,0x0
    2d5a:	000000e7          	jalr	zero # 0 <_sinit>
    2d5e:	57fd                	li	a5,-1
    2d60:	8a2a                	mv	s4,a0
    2d62:	fcf514e3          	bne	a0,a5,2d2a <_vfiprintf_r+0x23a>
    2d66:	00c4d783          	lhu	a5,12(s1)
    2d6a:	0407f793          	andi	a5,a5,64
    2d6e:	ea079ce3          	bnez	a5,2c26 <_vfiprintf_r+0x136>
    2d72:	5512                	lw	a0,36(sp)
    2d74:	bd55                	j	2c28 <_vfiprintf_r+0x138>
    2d76:	0078                	addi	a4,sp,12
    2d78:	00000697          	auipc	a3,0x0
    2d7c:	d3668693          	addi	a3,a3,-714 # 2aae <__sfputs_r>
    2d80:	8626                	mv	a2,s1
    2d82:	080c                	addi	a1,sp,16
    2d84:	854e                	mv	a0,s3
    2d86:	2a01                	jal	2e96 <_printf_i>
    2d88:	bfd9                	j	2d5e <_vfiprintf_r+0x26e>

00002d8a <_printf_common>:
    2d8a:	7179                	addi	sp,sp,-48
    2d8c:	ca56                	sw	s5,20(sp)
    2d8e:	499c                	lw	a5,16(a1)
    2d90:	8aba                	mv	s5,a4
    2d92:	4598                	lw	a4,8(a1)
    2d94:	d422                	sw	s0,40(sp)
    2d96:	d226                	sw	s1,36(sp)
    2d98:	ce4e                	sw	s3,28(sp)
    2d9a:	cc52                	sw	s4,24(sp)
    2d9c:	d606                	sw	ra,44(sp)
    2d9e:	d04a                	sw	s2,32(sp)
    2da0:	c85a                	sw	s6,16(sp)
    2da2:	c65e                	sw	s7,12(sp)
    2da4:	89aa                	mv	s3,a0
    2da6:	842e                	mv	s0,a1
    2da8:	84b2                	mv	s1,a2
    2daa:	8a36                	mv	s4,a3
    2dac:	00e7d363          	bge	a5,a4,2db2 <_printf_common+0x28>
    2db0:	87ba                	mv	a5,a4
    2db2:	c09c                	sw	a5,0(s1)
    2db4:	04344703          	lbu	a4,67(s0)
    2db8:	c319                	beqz	a4,2dbe <_printf_common+0x34>
    2dba:	0785                	addi	a5,a5,1
    2dbc:	c09c                	sw	a5,0(s1)
    2dbe:	401c                	lw	a5,0(s0)
    2dc0:	0207f793          	andi	a5,a5,32
    2dc4:	c781                	beqz	a5,2dcc <_printf_common+0x42>
    2dc6:	409c                	lw	a5,0(s1)
    2dc8:	0789                	addi	a5,a5,2
    2dca:	c09c                	sw	a5,0(s1)
    2dcc:	00042903          	lw	s2,0(s0)
    2dd0:	00697913          	andi	s2,s2,6
    2dd4:	00091a63          	bnez	s2,2de8 <_printf_common+0x5e>
    2dd8:	01940b13          	addi	s6,s0,25
    2ddc:	5bfd                	li	s7,-1
    2dde:	445c                	lw	a5,12(s0)
    2de0:	4098                	lw	a4,0(s1)
    2de2:	8f99                	sub	a5,a5,a4
    2de4:	04f94c63          	blt	s2,a5,2e3c <_printf_common+0xb2>
    2de8:	401c                	lw	a5,0(s0)
    2dea:	04344683          	lbu	a3,67(s0)
    2dee:	0207f793          	andi	a5,a5,32
    2df2:	00d036b3          	snez	a3,a3
    2df6:	eba5                	bnez	a5,2e66 <_printf_common+0xdc>
    2df8:	04340613          	addi	a2,s0,67
    2dfc:	85d2                	mv	a1,s4
    2dfe:	854e                	mv	a0,s3
    2e00:	9a82                	jalr	s5
    2e02:	57fd                	li	a5,-1
    2e04:	04f50363          	beq	a0,a5,2e4a <_printf_common+0xc0>
    2e08:	401c                	lw	a5,0(s0)
    2e0a:	4611                	li	a2,4
    2e0c:	4098                	lw	a4,0(s1)
    2e0e:	8b99                	andi	a5,a5,6
    2e10:	4454                	lw	a3,12(s0)
    2e12:	4481                	li	s1,0
    2e14:	00c79763          	bne	a5,a2,2e22 <_printf_common+0x98>
    2e18:	40e684b3          	sub	s1,a3,a4
    2e1c:	0004d363          	bgez	s1,2e22 <_printf_common+0x98>
    2e20:	4481                	li	s1,0
    2e22:	441c                	lw	a5,8(s0)
    2e24:	4818                	lw	a4,16(s0)
    2e26:	00f75463          	bge	a4,a5,2e2e <_printf_common+0xa4>
    2e2a:	8f99                	sub	a5,a5,a4
    2e2c:	94be                	add	s1,s1,a5
    2e2e:	4901                	li	s2,0
    2e30:	0469                	addi	s0,s0,26
    2e32:	5b7d                	li	s6,-1
    2e34:	05249863          	bne	s1,s2,2e84 <_printf_common+0xfa>
    2e38:	4501                	li	a0,0
    2e3a:	a809                	j	2e4c <_printf_common+0xc2>
    2e3c:	4685                	li	a3,1
    2e3e:	865a                	mv	a2,s6
    2e40:	85d2                	mv	a1,s4
    2e42:	854e                	mv	a0,s3
    2e44:	9a82                	jalr	s5
    2e46:	01751e63          	bne	a0,s7,2e62 <_printf_common+0xd8>
    2e4a:	557d                	li	a0,-1
    2e4c:	50b2                	lw	ra,44(sp)
    2e4e:	5422                	lw	s0,40(sp)
    2e50:	5492                	lw	s1,36(sp)
    2e52:	5902                	lw	s2,32(sp)
    2e54:	49f2                	lw	s3,28(sp)
    2e56:	4a62                	lw	s4,24(sp)
    2e58:	4ad2                	lw	s5,20(sp)
    2e5a:	4b42                	lw	s6,16(sp)
    2e5c:	4bb2                	lw	s7,12(sp)
    2e5e:	6145                	addi	sp,sp,48
    2e60:	8082                	ret
    2e62:	0905                	addi	s2,s2,1
    2e64:	bfad                	j	2dde <_printf_common+0x54>
    2e66:	00d40733          	add	a4,s0,a3
    2e6a:	03000613          	li	a2,48
    2e6e:	04c701a3          	sb	a2,67(a4)
    2e72:	04544703          	lbu	a4,69(s0)
    2e76:	00168793          	addi	a5,a3,1
    2e7a:	97a2                	add	a5,a5,s0
    2e7c:	0689                	addi	a3,a3,2
    2e7e:	04e781a3          	sb	a4,67(a5)
    2e82:	bf9d                	j	2df8 <_printf_common+0x6e>
    2e84:	4685                	li	a3,1
    2e86:	8622                	mv	a2,s0
    2e88:	85d2                	mv	a1,s4
    2e8a:	854e                	mv	a0,s3
    2e8c:	9a82                	jalr	s5
    2e8e:	fb650ee3          	beq	a0,s6,2e4a <_printf_common+0xc0>
    2e92:	0905                	addi	s2,s2,1
    2e94:	b745                	j	2e34 <_printf_common+0xaa>

00002e96 <_printf_i>:
    2e96:	7179                	addi	sp,sp,-48
    2e98:	d422                	sw	s0,40(sp)
    2e9a:	d226                	sw	s1,36(sp)
    2e9c:	d04a                	sw	s2,32(sp)
    2e9e:	ce4e                	sw	s3,28(sp)
    2ea0:	d606                	sw	ra,44(sp)
    2ea2:	cc52                	sw	s4,24(sp)
    2ea4:	ca56                	sw	s5,20(sp)
    2ea6:	c85a                	sw	s6,16(sp)
    2ea8:	89b6                	mv	s3,a3
    2eaa:	0185c683          	lbu	a3,24(a1)
    2eae:	06900793          	li	a5,105
    2eb2:	8932                	mv	s2,a2
    2eb4:	84aa                	mv	s1,a0
    2eb6:	842e                	mv	s0,a1
    2eb8:	04358613          	addi	a2,a1,67
    2ebc:	02f68d63          	beq	a3,a5,2ef6 <_printf_i+0x60>
    2ec0:	06d7e263          	bltu	a5,a3,2f24 <_printf_i+0x8e>
    2ec4:	05800793          	li	a5,88
    2ec8:	18f68763          	beq	a3,a5,3056 <_printf_i+0x1c0>
    2ecc:	00d7ed63          	bltu	a5,a3,2ee6 <_printf_i+0x50>
    2ed0:	22068063          	beqz	a3,30f0 <_printf_i+0x25a>
    2ed4:	04300793          	li	a5,67
    2ed8:	0af68e63          	beq	a3,a5,2f94 <_printf_i+0xfe>
    2edc:	04240a93          	addi	s5,s0,66
    2ee0:	04d40123          	sb	a3,66(s0)
    2ee4:	a0c9                	j	2fa6 <_printf_i+0x110>
    2ee6:	06300793          	li	a5,99
    2eea:	0af68563          	beq	a3,a5,2f94 <_printf_i+0xfe>
    2eee:	06400793          	li	a5,100
    2ef2:	fef695e3          	bne	a3,a5,2edc <_printf_i+0x46>
    2ef6:	401c                	lw	a5,0(s0)
    2ef8:	4308                	lw	a0,0(a4)
    2efa:	0807f693          	andi	a3,a5,128
    2efe:	00450593          	addi	a1,a0,4
    2f02:	c6c5                	beqz	a3,2faa <_printf_i+0x114>
    2f04:	411c                	lw	a5,0(a0)
    2f06:	c30c                	sw	a1,0(a4)
    2f08:	0007d863          	bgez	a5,2f18 <_printf_i+0x82>
    2f0c:	02d00713          	li	a4,45
    2f10:	40f007b3          	neg	a5,a5
    2f14:	04e401a3          	sb	a4,67(s0)
    2f18:	00000697          	auipc	a3,0x0
    2f1c:	71868693          	addi	a3,a3,1816 # 3630 <__sf_fake_stdout+0x34>
    2f20:	4729                	li	a4,10
    2f22:	a86d                	j	2fdc <_printf_i+0x146>
    2f24:	07000793          	li	a5,112
    2f28:	16f68363          	beq	a3,a5,308e <_printf_i+0x1f8>
    2f2c:	02d7e563          	bltu	a5,a3,2f56 <_printf_i+0xc0>
    2f30:	06e00793          	li	a5,110
    2f34:	18f68a63          	beq	a3,a5,30c8 <_printf_i+0x232>
    2f38:	06f00793          	li	a5,111
    2f3c:	faf690e3          	bne	a3,a5,2edc <_printf_i+0x46>
    2f40:	400c                	lw	a1,0(s0)
    2f42:	431c                	lw	a5,0(a4)
    2f44:	0805f813          	andi	a6,a1,128
    2f48:	00478513          	addi	a0,a5,4
    2f4c:	06080763          	beqz	a6,2fba <_printf_i+0x124>
    2f50:	c308                	sw	a0,0(a4)
    2f52:	439c                	lw	a5,0(a5)
    2f54:	a88d                	j	2fc6 <_printf_i+0x130>
    2f56:	07500793          	li	a5,117
    2f5a:	fef683e3          	beq	a3,a5,2f40 <_printf_i+0xaa>
    2f5e:	07800793          	li	a5,120
    2f62:	12f68a63          	beq	a3,a5,3096 <_printf_i+0x200>
    2f66:	07300793          	li	a5,115
    2f6a:	f6f699e3          	bne	a3,a5,2edc <_printf_i+0x46>
    2f6e:	431c                	lw	a5,0(a4)
    2f70:	41d0                	lw	a2,4(a1)
    2f72:	4581                	li	a1,0
    2f74:	00478693          	addi	a3,a5,4
    2f78:	c314                	sw	a3,0(a4)
    2f7a:	0007aa83          	lw	s5,0(a5)
    2f7e:	8556                	mv	a0,s5
    2f80:	2e9d                	jal	32f6 <memchr>
    2f82:	c501                	beqz	a0,2f8a <_printf_i+0xf4>
    2f84:	41550533          	sub	a0,a0,s5
    2f88:	c048                	sw	a0,4(s0)
    2f8a:	405c                	lw	a5,4(s0)
    2f8c:	c81c                	sw	a5,16(s0)
    2f8e:	040401a3          	sb	zero,67(s0)
    2f92:	a871                	j	302e <_printf_i+0x198>
    2f94:	431c                	lw	a5,0(a4)
    2f96:	04240a93          	addi	s5,s0,66
    2f9a:	00478693          	addi	a3,a5,4
    2f9e:	439c                	lw	a5,0(a5)
    2fa0:	c314                	sw	a3,0(a4)
    2fa2:	04f40123          	sb	a5,66(s0)
    2fa6:	4785                	li	a5,1
    2fa8:	b7d5                	j	2f8c <_printf_i+0xf6>
    2faa:	0407f693          	andi	a3,a5,64
    2fae:	411c                	lw	a5,0(a0)
    2fb0:	c30c                	sw	a1,0(a4)
    2fb2:	dab9                	beqz	a3,2f08 <_printf_i+0x72>
    2fb4:	07c2                	slli	a5,a5,0x10
    2fb6:	87c1                	srai	a5,a5,0x10
    2fb8:	bf81                	j	2f08 <_printf_i+0x72>
    2fba:	0405f593          	andi	a1,a1,64
    2fbe:	c308                	sw	a0,0(a4)
    2fc0:	d9c9                	beqz	a1,2f52 <_printf_i+0xbc>
    2fc2:	0007d783          	lhu	a5,0(a5)
    2fc6:	06f00713          	li	a4,111
    2fca:	0ee68763          	beq	a3,a4,30b8 <_printf_i+0x222>
    2fce:	00000697          	auipc	a3,0x0
    2fd2:	66268693          	addi	a3,a3,1634 # 3630 <__sf_fake_stdout+0x34>
    2fd6:	4729                	li	a4,10
    2fd8:	040401a3          	sb	zero,67(s0)
    2fdc:	404c                	lw	a1,4(s0)
    2fde:	c40c                	sw	a1,8(s0)
    2fe0:	0005c563          	bltz	a1,2fea <_printf_i+0x154>
    2fe4:	4008                	lw	a0,0(s0)
    2fe6:	996d                	andi	a0,a0,-5
    2fe8:	c008                	sw	a0,0(s0)
    2fea:	e399                	bnez	a5,2ff0 <_printf_i+0x15a>
    2fec:	8ab2                	mv	s5,a2
    2fee:	cd91                	beqz	a1,300a <_printf_i+0x174>
    2ff0:	8ab2                	mv	s5,a2
    2ff2:	02e7f5b3          	remu	a1,a5,a4
    2ff6:	1afd                	addi	s5,s5,-1
    2ff8:	95b6                	add	a1,a1,a3
    2ffa:	0005c583          	lbu	a1,0(a1)
    2ffe:	00ba8023          	sb	a1,0(s5)
    3002:	02e7d5b3          	divu	a1,a5,a4
    3006:	0ae7ff63          	bgeu	a5,a4,30c4 <_printf_i+0x22e>
    300a:	47a1                	li	a5,8
    300c:	00f71e63          	bne	a4,a5,3028 <_printf_i+0x192>
    3010:	401c                	lw	a5,0(s0)
    3012:	8b85                	andi	a5,a5,1
    3014:	cb91                	beqz	a5,3028 <_printf_i+0x192>
    3016:	4058                	lw	a4,4(s0)
    3018:	481c                	lw	a5,16(s0)
    301a:	00e7c763          	blt	a5,a4,3028 <_printf_i+0x192>
    301e:	03000793          	li	a5,48
    3022:	fefa8fa3          	sb	a5,-1(s5)
    3026:	1afd                	addi	s5,s5,-1
    3028:	41560633          	sub	a2,a2,s5
    302c:	c810                	sw	a2,16(s0)
    302e:	874e                	mv	a4,s3
    3030:	86ca                	mv	a3,s2
    3032:	0070                	addi	a2,sp,12
    3034:	85a2                	mv	a1,s0
    3036:	8526                	mv	a0,s1
    3038:	3b89                	jal	2d8a <_printf_common>
    303a:	5a7d                	li	s4,-1
    303c:	0b451e63          	bne	a0,s4,30f8 <_printf_i+0x262>
    3040:	557d                	li	a0,-1
    3042:	50b2                	lw	ra,44(sp)
    3044:	5422                	lw	s0,40(sp)
    3046:	5492                	lw	s1,36(sp)
    3048:	5902                	lw	s2,32(sp)
    304a:	49f2                	lw	s3,28(sp)
    304c:	4a62                	lw	s4,24(sp)
    304e:	4ad2                	lw	s5,20(sp)
    3050:	4b42                	lw	s6,16(sp)
    3052:	6145                	addi	sp,sp,48
    3054:	8082                	ret
    3056:	04d582a3          	sb	a3,69(a1)
    305a:	00000697          	auipc	a3,0x0
    305e:	5d668693          	addi	a3,a3,1494 # 3630 <__sf_fake_stdout+0x34>
    3062:	400c                	lw	a1,0(s0)
    3064:	4308                	lw	a0,0(a4)
    3066:	0805f813          	andi	a6,a1,128
    306a:	411c                	lw	a5,0(a0)
    306c:	0511                	addi	a0,a0,4
    306e:	02080d63          	beqz	a6,30a8 <_printf_i+0x212>
    3072:	c308                	sw	a0,0(a4)
    3074:	0015f713          	andi	a4,a1,1
    3078:	c701                	beqz	a4,3080 <_printf_i+0x1ea>
    307a:	0205e593          	ori	a1,a1,32
    307e:	c00c                	sw	a1,0(s0)
    3080:	4741                	li	a4,16
    3082:	fbb9                	bnez	a5,2fd8 <_printf_i+0x142>
    3084:	400c                	lw	a1,0(s0)
    3086:	fdf5f593          	andi	a1,a1,-33
    308a:	c00c                	sw	a1,0(s0)
    308c:	b7b1                	j	2fd8 <_printf_i+0x142>
    308e:	419c                	lw	a5,0(a1)
    3090:	0207e793          	ori	a5,a5,32
    3094:	c19c                	sw	a5,0(a1)
    3096:	07800793          	li	a5,120
    309a:	04f402a3          	sb	a5,69(s0)
    309e:	00000697          	auipc	a3,0x0
    30a2:	5a668693          	addi	a3,a3,1446 # 3644 <__sf_fake_stdout+0x48>
    30a6:	bf75                	j	3062 <_printf_i+0x1cc>
    30a8:	0405f813          	andi	a6,a1,64
    30ac:	c308                	sw	a0,0(a4)
    30ae:	fc0803e3          	beqz	a6,3074 <_printf_i+0x1de>
    30b2:	07c2                	slli	a5,a5,0x10
    30b4:	83c1                	srli	a5,a5,0x10
    30b6:	bf7d                	j	3074 <_printf_i+0x1de>
    30b8:	00000697          	auipc	a3,0x0
    30bc:	57868693          	addi	a3,a3,1400 # 3630 <__sf_fake_stdout+0x34>
    30c0:	4721                	li	a4,8
    30c2:	bf19                	j	2fd8 <_printf_i+0x142>
    30c4:	87ae                	mv	a5,a1
    30c6:	b735                	j	2ff2 <_printf_i+0x15c>
    30c8:	4194                	lw	a3,0(a1)
    30ca:	431c                	lw	a5,0(a4)
    30cc:	49cc                	lw	a1,20(a1)
    30ce:	0806f813          	andi	a6,a3,128
    30d2:	00478513          	addi	a0,a5,4
    30d6:	00080663          	beqz	a6,30e2 <_printf_i+0x24c>
    30da:	c308                	sw	a0,0(a4)
    30dc:	439c                	lw	a5,0(a5)
    30de:	c38c                	sw	a1,0(a5)
    30e0:	a801                	j	30f0 <_printf_i+0x25a>
    30e2:	c308                	sw	a0,0(a4)
    30e4:	0406f693          	andi	a3,a3,64
    30e8:	439c                	lw	a5,0(a5)
    30ea:	daf5                	beqz	a3,30de <_printf_i+0x248>
    30ec:	00b79023          	sh	a1,0(a5)
    30f0:	00042823          	sw	zero,16(s0)
    30f4:	8ab2                	mv	s5,a2
    30f6:	bf25                	j	302e <_printf_i+0x198>
    30f8:	4814                	lw	a3,16(s0)
    30fa:	8656                	mv	a2,s5
    30fc:	85ca                	mv	a1,s2
    30fe:	8526                	mv	a0,s1
    3100:	9982                	jalr	s3
    3102:	f3450fe3          	beq	a0,s4,3040 <_printf_i+0x1aa>
    3106:	401c                	lw	a5,0(s0)
    3108:	8b89                	andi	a5,a5,2
    310a:	e78d                	bnez	a5,3134 <_printf_i+0x29e>
    310c:	47b2                	lw	a5,12(sp)
    310e:	4448                	lw	a0,12(s0)
    3110:	f2f559e3          	bge	a0,a5,3042 <_printf_i+0x1ac>
    3114:	853e                	mv	a0,a5
    3116:	b735                	j	3042 <_printf_i+0x1ac>
    3118:	4685                	li	a3,1
    311a:	8656                	mv	a2,s5
    311c:	85ca                	mv	a1,s2
    311e:	8526                	mv	a0,s1
    3120:	9982                	jalr	s3
    3122:	f1650fe3          	beq	a0,s6,3040 <_printf_i+0x1aa>
    3126:	0a05                	addi	s4,s4,1
    3128:	445c                	lw	a5,12(s0)
    312a:	4732                	lw	a4,12(sp)
    312c:	8f99                	sub	a5,a5,a4
    312e:	fefa45e3          	blt	s4,a5,3118 <_printf_i+0x282>
    3132:	bfe9                	j	310c <_printf_i+0x276>
    3134:	4a01                	li	s4,0
    3136:	01940a93          	addi	s5,s0,25
    313a:	5b7d                	li	s6,-1
    313c:	b7f5                	j	3128 <_printf_i+0x292>

0000313e <_sbrk_r>:
    313e:	1141                	addi	sp,sp,-16
    3140:	c422                	sw	s0,8(sp)
    3142:	842a                	mv	s0,a0
    3144:	852e                	mv	a0,a1
    3146:	0e01a623          	sw	zero,236(gp) # 2000094c <errno>
    314a:	c606                	sw	ra,12(sp)
    314c:	fe7fe0ef          	jal	ra,2132 <_sbrk>
    3150:	57fd                	li	a5,-1
    3152:	00f51763          	bne	a0,a5,3160 <_sbrk_r+0x22>
    3156:	0ec18793          	addi	a5,gp,236 # 2000094c <errno>
    315a:	439c                	lw	a5,0(a5)
    315c:	c391                	beqz	a5,3160 <_sbrk_r+0x22>
    315e:	c01c                	sw	a5,0(s0)
    3160:	40b2                	lw	ra,12(sp)
    3162:	4422                	lw	s0,8(sp)
    3164:	0141                	addi	sp,sp,16
    3166:	8082                	ret

00003168 <__sread>:
    3168:	1141                	addi	sp,sp,-16
    316a:	c422                	sw	s0,8(sp)
    316c:	842e                	mv	s0,a1
    316e:	00e59583          	lh	a1,14(a1)
    3172:	c606                	sw	ra,12(sp)
    3174:	2245                	jal	3314 <_read_r>
    3176:	00054963          	bltz	a0,3188 <__sread+0x20>
    317a:	487c                	lw	a5,84(s0)
    317c:	97aa                	add	a5,a5,a0
    317e:	c87c                	sw	a5,84(s0)
    3180:	40b2                	lw	ra,12(sp)
    3182:	4422                	lw	s0,8(sp)
    3184:	0141                	addi	sp,sp,16
    3186:	8082                	ret
    3188:	00c45783          	lhu	a5,12(s0)
    318c:	777d                	lui	a4,0xfffff
    318e:	177d                	addi	a4,a4,-1
    3190:	8ff9                	and	a5,a5,a4
    3192:	00f41623          	sh	a5,12(s0)
    3196:	b7ed                	j	3180 <__sread+0x18>

00003198 <__swrite>:
    3198:	00c5d783          	lhu	a5,12(a1)
    319c:	1101                	addi	sp,sp,-32
    319e:	cc22                	sw	s0,24(sp)
    31a0:	ca26                	sw	s1,20(sp)
    31a2:	c84a                	sw	s2,16(sp)
    31a4:	c64e                	sw	s3,12(sp)
    31a6:	ce06                	sw	ra,28(sp)
    31a8:	1007f793          	andi	a5,a5,256
    31ac:	84aa                	mv	s1,a0
    31ae:	842e                	mv	s0,a1
    31b0:	8932                	mv	s2,a2
    31b2:	89b6                	mv	s3,a3
    31b4:	c791                	beqz	a5,31c0 <__swrite+0x28>
    31b6:	00e59583          	lh	a1,14(a1)
    31ba:	4689                	li	a3,2
    31bc:	4601                	li	a2,0
    31be:	2231                	jal	32ca <_lseek_r>
    31c0:	00c45783          	lhu	a5,12(s0)
    31c4:	777d                	lui	a4,0xfffff
    31c6:	177d                	addi	a4,a4,-1
    31c8:	8ff9                	and	a5,a5,a4
    31ca:	00f41623          	sh	a5,12(s0)
    31ce:	00e41583          	lh	a1,14(s0)
    31d2:	4462                	lw	s0,24(sp)
    31d4:	40f2                	lw	ra,28(sp)
    31d6:	86ce                	mv	a3,s3
    31d8:	864a                	mv	a2,s2
    31da:	49b2                	lw	s3,12(sp)
    31dc:	4942                	lw	s2,16(sp)
    31de:	8526                	mv	a0,s1
    31e0:	44d2                	lw	s1,20(sp)
    31e2:	6105                	addi	sp,sp,32
    31e4:	a83d                	j	3222 <_write_r>

000031e6 <__sseek>:
    31e6:	1141                	addi	sp,sp,-16
    31e8:	c422                	sw	s0,8(sp)
    31ea:	842e                	mv	s0,a1
    31ec:	00e59583          	lh	a1,14(a1)
    31f0:	c606                	sw	ra,12(sp)
    31f2:	28e1                	jal	32ca <_lseek_r>
    31f4:	57fd                	li	a5,-1
    31f6:	00c45703          	lhu	a4,12(s0)
    31fa:	00f51b63          	bne	a0,a5,3210 <__sseek+0x2a>
    31fe:	77fd                	lui	a5,0xfffff
    3200:	17fd                	addi	a5,a5,-1
    3202:	8ff9                	and	a5,a5,a4
    3204:	00f41623          	sh	a5,12(s0)
    3208:	40b2                	lw	ra,12(sp)
    320a:	4422                	lw	s0,8(sp)
    320c:	0141                	addi	sp,sp,16
    320e:	8082                	ret
    3210:	6785                	lui	a5,0x1
    3212:	8fd9                	or	a5,a5,a4
    3214:	00f41623          	sh	a5,12(s0)
    3218:	c868                	sw	a0,84(s0)
    321a:	b7fd                	j	3208 <__sseek+0x22>

0000321c <__sclose>:
    321c:	00e59583          	lh	a1,14(a1)
    3220:	a805                	j	3250 <_close_r>

00003222 <_write_r>:
    3222:	1141                	addi	sp,sp,-16
    3224:	c422                	sw	s0,8(sp)
    3226:	842a                	mv	s0,a0
    3228:	852e                	mv	a0,a1
    322a:	85b2                	mv	a1,a2
    322c:	8636                	mv	a2,a3
    322e:	0e01a623          	sw	zero,236(gp) # 2000094c <errno>
    3232:	c606                	sw	ra,12(sp)
    3234:	ed5fe0ef          	jal	ra,2108 <_write>
    3238:	57fd                	li	a5,-1
    323a:	00f51763          	bne	a0,a5,3248 <_write_r+0x26>
    323e:	0ec18793          	addi	a5,gp,236 # 2000094c <errno>
    3242:	439c                	lw	a5,0(a5)
    3244:	c391                	beqz	a5,3248 <_write_r+0x26>
    3246:	c01c                	sw	a5,0(s0)
    3248:	40b2                	lw	ra,12(sp)
    324a:	4422                	lw	s0,8(sp)
    324c:	0141                	addi	sp,sp,16
    324e:	8082                	ret

00003250 <_close_r>:
    3250:	1141                	addi	sp,sp,-16
    3252:	c422                	sw	s0,8(sp)
    3254:	842a                	mv	s0,a0
    3256:	852e                	mv	a0,a1
    3258:	0e01a623          	sw	zero,236(gp) # 2000094c <errno>
    325c:	c606                	sw	ra,12(sp)
    325e:	20cd                	jal	3340 <_close>
    3260:	57fd                	li	a5,-1
    3262:	00f51763          	bne	a0,a5,3270 <_close_r+0x20>
    3266:	0ec18793          	addi	a5,gp,236 # 2000094c <errno>
    326a:	439c                	lw	a5,0(a5)
    326c:	c391                	beqz	a5,3270 <_close_r+0x20>
    326e:	c01c                	sw	a5,0(s0)
    3270:	40b2                	lw	ra,12(sp)
    3272:	4422                	lw	s0,8(sp)
    3274:	0141                	addi	sp,sp,16
    3276:	8082                	ret

00003278 <_fstat_r>:
    3278:	1141                	addi	sp,sp,-16
    327a:	c422                	sw	s0,8(sp)
    327c:	842a                	mv	s0,a0
    327e:	852e                	mv	a0,a1
    3280:	85b2                	mv	a1,a2
    3282:	0e01a623          	sw	zero,236(gp) # 2000094c <errno>
    3286:	c606                	sw	ra,12(sp)
    3288:	20d1                	jal	334c <_fstat>
    328a:	57fd                	li	a5,-1
    328c:	00f51763          	bne	a0,a5,329a <_fstat_r+0x22>
    3290:	0ec18793          	addi	a5,gp,236 # 2000094c <errno>
    3294:	439c                	lw	a5,0(a5)
    3296:	c391                	beqz	a5,329a <_fstat_r+0x22>
    3298:	c01c                	sw	a5,0(s0)
    329a:	40b2                	lw	ra,12(sp)
    329c:	4422                	lw	s0,8(sp)
    329e:	0141                	addi	sp,sp,16
    32a0:	8082                	ret

000032a2 <_isatty_r>:
    32a2:	1141                	addi	sp,sp,-16
    32a4:	c422                	sw	s0,8(sp)
    32a6:	842a                	mv	s0,a0
    32a8:	852e                	mv	a0,a1
    32aa:	0e01a623          	sw	zero,236(gp) # 2000094c <errno>
    32ae:	c606                	sw	ra,12(sp)
    32b0:	2065                	jal	3358 <_isatty>
    32b2:	57fd                	li	a5,-1
    32b4:	00f51763          	bne	a0,a5,32c2 <_isatty_r+0x20>
    32b8:	0ec18793          	addi	a5,gp,236 # 2000094c <errno>
    32bc:	439c                	lw	a5,0(a5)
    32be:	c391                	beqz	a5,32c2 <_isatty_r+0x20>
    32c0:	c01c                	sw	a5,0(s0)
    32c2:	40b2                	lw	ra,12(sp)
    32c4:	4422                	lw	s0,8(sp)
    32c6:	0141                	addi	sp,sp,16
    32c8:	8082                	ret

000032ca <_lseek_r>:
    32ca:	1141                	addi	sp,sp,-16
    32cc:	c422                	sw	s0,8(sp)
    32ce:	842a                	mv	s0,a0
    32d0:	852e                	mv	a0,a1
    32d2:	85b2                	mv	a1,a2
    32d4:	8636                	mv	a2,a3
    32d6:	0e01a623          	sw	zero,236(gp) # 2000094c <errno>
    32da:	c606                	sw	ra,12(sp)
    32dc:	2061                	jal	3364 <_lseek>
    32de:	57fd                	li	a5,-1
    32e0:	00f51763          	bne	a0,a5,32ee <_lseek_r+0x24>
    32e4:	0ec18793          	addi	a5,gp,236 # 2000094c <errno>
    32e8:	439c                	lw	a5,0(a5)
    32ea:	c391                	beqz	a5,32ee <_lseek_r+0x24>
    32ec:	c01c                	sw	a5,0(s0)
    32ee:	40b2                	lw	ra,12(sp)
    32f0:	4422                	lw	s0,8(sp)
    32f2:	0141                	addi	sp,sp,16
    32f4:	8082                	ret

000032f6 <memchr>:
    32f6:	0ff5f593          	andi	a1,a1,255
    32fa:	962a                	add	a2,a2,a0
    32fc:	00c51463          	bne	a0,a2,3304 <memchr+0xe>
    3300:	4501                	li	a0,0
    3302:	8082                	ret
    3304:	00054783          	lbu	a5,0(a0)
    3308:	feb78de3          	beq	a5,a1,3302 <memchr+0xc>
    330c:	0505                	addi	a0,a0,1
    330e:	b7fd                	j	32fc <memchr+0x6>

00003310 <__malloc_lock>:
    3310:	8082                	ret

00003312 <__malloc_unlock>:
    3312:	8082                	ret

00003314 <_read_r>:
    3314:	1141                	addi	sp,sp,-16
    3316:	c422                	sw	s0,8(sp)
    3318:	842a                	mv	s0,a0
    331a:	852e                	mv	a0,a1
    331c:	85b2                	mv	a1,a2
    331e:	8636                	mv	a2,a3
    3320:	0e01a623          	sw	zero,236(gp) # 2000094c <errno>
    3324:	c606                	sw	ra,12(sp)
    3326:	20a9                	jal	3370 <_read>
    3328:	57fd                	li	a5,-1
    332a:	00f51763          	bne	a0,a5,3338 <_read_r+0x24>
    332e:	0ec18793          	addi	a5,gp,236 # 2000094c <errno>
    3332:	439c                	lw	a5,0(a5)
    3334:	c391                	beqz	a5,3338 <_read_r+0x24>
    3336:	c01c                	sw	a5,0(s0)
    3338:	40b2                	lw	ra,12(sp)
    333a:	4422                	lw	s0,8(sp)
    333c:	0141                	addi	sp,sp,16
    333e:	8082                	ret

00003340 <_close>:
    3340:	05800793          	li	a5,88
    3344:	0ef1a623          	sw	a5,236(gp) # 2000094c <errno>
    3348:	557d                	li	a0,-1
    334a:	8082                	ret

0000334c <_fstat>:
    334c:	05800793          	li	a5,88
    3350:	0ef1a623          	sw	a5,236(gp) # 2000094c <errno>
    3354:	557d                	li	a0,-1
    3356:	8082                	ret

00003358 <_isatty>:
    3358:	05800793          	li	a5,88
    335c:	0ef1a623          	sw	a5,236(gp) # 2000094c <errno>
    3360:	4501                	li	a0,0
    3362:	8082                	ret

00003364 <_lseek>:
    3364:	05800793          	li	a5,88
    3368:	0ef1a623          	sw	a5,236(gp) # 2000094c <errno>
    336c:	557d                	li	a0,-1
    336e:	8082                	ret

00003370 <_read>:
    3370:	05800793          	li	a5,88
    3374:	0ef1a623          	sw	a5,236(gp) # 2000094c <errno>
    3378:	557d                	li	a0,-1
    337a:	8082                	ret
    337c:	1170                	addi	a2,sp,172
    337e:	0000                	unimp
    3380:	11e6                	slli	gp,gp,0x39
    3382:	0000                	unimp
    3384:	138a                	slli	t2,t2,0x22
    3386:	0000                	unimp
    3388:	1280                	addi	s0,sp,352
    338a:	0000                	unimp
    338c:	138a                	slli	t2,t2,0x22
    338e:	0000                	unimp
    3390:	1318                	addi	a4,sp,416
    3392:	0000                	unimp
    3394:	1322                	slli	t1,t1,0x28
    3396:	0000                	unimp
    3398:	138a                	slli	t2,t2,0x22
    339a:	0000                	unimp
    339c:	13ca                	slli	t2,t2,0x32
    339e:	0000                	unimp
    33a0:	13e2                	slli	t2,t2,0x38
    33a2:	0000                	unimp
    33a4:	13ec                	addi	a1,sp,492
    33a6:	0000                	unimp
    33a8:	1182                	slli	gp,gp,0x20
    33aa:	0000                	unimp
    33ac:	1372                	slli	t1,t1,0x3c
    33ae:	0000                	unimp
    33b0:	13b2                	slli	t2,t2,0x2c
    33b2:	0000                	unimp
    33b4:	13ba                	slli	t2,t2,0x2e
    33b6:	0000                	unimp
    33b8:	13c2                	slli	t2,t2,0x30
    33ba:	0000                	unimp
    33bc:	13ba                	slli	t2,t2,0x2e
	...

000033c0 <cdc_config_descriptor>:
    33c0:	0209 0043 0102 8000 0932 0004 0100 0202     ..C.....2.......
    33d0:	0401 2405 1000 0501 0124 0100 2404 0202     ...$....$....$..
    33e0:	2405 0006 0701 8105 1003 0100 0409 0001     .$..............
    33f0:	0a02 0000 0700 0205 4002 0000 0507 0283     .........@......
    3400:	0040 0000                                   @...

00003404 <cdc_device_descriptor>:
    3404:	0112 0110 0002 0800 1a86 fe0c 0100 0201     ................
    3414:	0103                                        ..

00003416 <cdc_serial_state>:
    3416:	20a1 0000 0000 0002 0000                    . ........

00003420 <cdc_string_product>:
    3420:	0316 0055 0053 0042 0020 0053 0065 0072     ..U.S.B. .S.e.r.
    3430:	0069 0061 006c                              i.a.l.

00003436 <cdc_string_serial>:
    3436:	0316 0044 0045 0041 0044 0042 0045 0045     ..D.E.A.D.B.E.E.
    3446:	0046 0030 0031                              F.0.1.

0000344c <cdc_string_vendor>:
    344c:	030e 0077 0063 0068 002e 0063 006e 0000     ..w.c.h...c.n...

0000345c <usbd_config>:
    345c:	0008 0010 0000 0040 0000 0000 0000 0000     ......@.........
    346c:	0008 0000 0040 0000 0000 0000 0000 0000     ....@...........
    347c:	0200 0600 0100 0100 0000 0000 0000 0000     ................
    348c:	8600 0000 1be4 0000 1bfa 0000 1c32 0000     ............2...
    349c:	1c40 0000 1c4e 0000 1c58 0000 1bec 0000     @...N...X.......
    34ac:	1f68 0000 1f5e 0000 1f54 0000 1f4a 0000     h...^...T...J...
    34bc:	1f40 0000 1f36 0000 1f2c 0000 1f22 0000     @...6...,..."...
    34cc:	1f18 0000 1f0e 0000 1ec6 0000 1ff6 0000     ................
    34dc:	1ff0 0000 1fea 0000 1fe4 0000 1fde 0000     ................
    34ec:	1fd8 0000 1fd2 0000 1fcc 0000 1fc6 0000     ................
    34fc:	1fc0 0000 1f7e 0000 6c41 6863 6d65 2079     ....~...Alchemy 
    350c:	202d 614e 6f6e 462d 434f 0000 5953 4353     - Nano-FOC..SYSC
    351c:	4b4c 203a 7525 000a 4348 4b4c 203a 7525     LK: %u..HCLK: %u
    352c:	000a 0000 4350 4b4c 3a31 2520 0a75 0000     ....PCLK1: %u...
    353c:	4350 4b4c 3a32 2520 0a75 0000 4441 4343     PCLK2: %u...ADCC
    354c:	4b4c 203a 7525 000a 6854 7265 2065 7369     LK: %u..There is
    355c:	7320 6d6f 7465 6968 676e 6620 7369 7968      something fishy
    356c:	6920 206e 6874 2065 4155 5452 2031 5852      in the UART1 RX
    357c:	6220 6675 6566 2e72 2e2e 0000 6854 7265      buffer.....Ther
    358c:	2065 7369 7320 6d6f 7465 6968 676e 6620     e is something f
    359c:	7369 7968 6920 206e 6874 2065 4443 2043     ishy in the CDC 
    35ac:	5852 6220 6675 6566 2e72 2e2e 0000 0000     RX buffer.......

000035bc <__sf_fake_stderr>:
	...

000035dc <__sf_fake_stdin>:
	...

000035fc <__sf_fake_stdout>:
	...
    361c:	2d23 2b30 0020 0000 6c68 004c 6665 4567     #-0+ ...hlL.efgE
    362c:	4746 0000 3130 3332 3534 3736 3938 4241     FG..0123456789AB
    363c:	4443 4645 0000 0000 3130 3332 3534 3736     CDEF....01234567
    364c:	3938 6261 6463 6665 0000 0000               89abcdef....
